
multiplayerInterrup_Serial_Init:

;serial.h,23 :: 		static void Serial_Init()
;serial.h,25 :: 		ADCON1 = 0x0F; // turn analog off
	MOVLW       15
	MOVWF       ADCON1+0 
;serial.h,27 :: 		UART1_Init(9600); // initialize hardware UART @baudrate=115200, the same setting for the sensor
	BSF         BAUDCON+0, 3, 0
	CLRF        SPBRGH+0 
	MOVLW       207
	MOVWF       SPBRG+0 
	BSF         TXSTA+0, 2, 0
	CALL        _UART1_Init+0, 0
;serial.h,28 :: 		Delay_ms(100);    // let them stablize
	MOVLW       2
	MOVWF       R11, 0
	MOVLW       4
	MOVWF       R12, 0
	MOVLW       186
	MOVWF       R13, 0
L_multiplayerInterrup_Serial_Init0:
	DECFSZ      R13, 1, 1
	BRA         L_multiplayerInterrup_Serial_Init0
	DECFSZ      R12, 1, 1
	BRA         L_multiplayerInterrup_Serial_Init0
	DECFSZ      R11, 1, 1
	BRA         L_multiplayerInterrup_Serial_Init0
	NOP
;serial.h,30 :: 		PIE1.RCIE = 1; // enable interrupt source
	BSF         PIE1+0, 5 
;serial.h,31 :: 		INTCON.PEIE = 1;
	BSF         INTCON+0, 6 
;serial.h,32 :: 		INTCON.GIE = 1;
	BSF         INTCON+0, 7 
;serial.h,33 :: 		}
L_end_Serial_Init:
	RETURN      0
; end of multiplayerInterrup_Serial_Init

multiplayerInterrup_readKeys:

;keys.h,12 :: 		static inline Keys readKeys()
	MOVF        R0, 0 
	MOVWF       R2 
	MOVF        R1, 0 
	MOVWF       R3 
;keys.h,16 :: 		tmp.right = PORTA.B0 == 1;
	CLRF        R1 
	BTFSC       PORTA+0, 0 
	INCF        R1, 1 
	MOVF        R1, 0 
	XORLW       1
	MOVLW       1
	BTFSS       STATUS+0, 2 
	MOVLW       0
	MOVWF       R0 
	MOVF        R0, 0 
	MOVWF       R6 
;keys.h,17 :: 		tmp.left  = PORTA.B1 == 1;
	CLRF        R1 
	BTFSC       PORTA+0, 1 
	INCF        R1, 1 
	MOVF        R1, 0 
	XORLW       1
	MOVLW       1
	BTFSS       STATUS+0, 2 
	MOVLW       0
	MOVWF       R0 
	MOVF        R0, 0 
	MOVWF       R7 
;keys.h,18 :: 		tmp.up    = PORTA.B2 == 1;
	CLRF        R1 
	BTFSC       PORTA+0, 2 
	INCF        R1, 1 
	MOVF        R1, 0 
	XORLW       1
	MOVLW       1
	BTFSS       STATUS+0, 2 
	MOVLW       0
	MOVWF       R0 
	MOVF        R0, 0 
	MOVWF       R4 
;keys.h,19 :: 		tmp.down  = PORTA.B3 == 1;
	CLRF        R1 
	BTFSC       PORTA+0, 3 
	INCF        R1, 1 
	MOVF        R1, 0 
	XORLW       1
	MOVLW       1
	BTFSS       STATUS+0, 2 
	MOVLW       0
	MOVWF       R0 
	MOVF        R0, 0 
	MOVWF       R5 
;keys.h,20 :: 		tmp.enter = PORTA.B4 == 1;
	CLRF        R1 
	BTFSC       PORTA+0, 4 
	INCF        R1, 1 
	MOVF        R1, 0 
	XORLW       1
	MOVLW       1
	BTFSS       STATUS+0, 2 
	MOVLW       0
	MOVWF       R0 
	MOVF        R0, 0 
	MOVWF       R8 
;keys.h,21 :: 		return tmp;
	MOVLW       5
	MOVWF       R0 
	MOVF        R2, 0 
	MOVWF       FSR1L+0 
	MOVF        R3, 0 
	MOVWF       FSR1L+1 
	MOVLW       4
	MOVWF       FSR0L+0 
	MOVLW       0
	MOVWF       FSR0L+1 
L_multiplayerInterrup_readKeys1:
	MOVF        POSTINC0+0, 0 
	MOVWF       POSTINC1+0 
	DECF        R0, 1 
	BTFSS       STATUS+0, 2 
	GOTO        L_multiplayerInterrup_readKeys1
;keys.h,22 :: 		}
L_end_readKeys:
	RETURN      0
; end of multiplayerInterrup_readKeys

_checkWallCollision:

;hit.h,16 :: 		void checkWallCollision(Generic *ball_tmp, uint8 velocity)
;hit.h,18 :: 		if (ball_tmp->posY >= 61){
	MOVLW       1
	ADDWF       FARG_checkWallCollision_ball_tmp+0, 0 
	MOVWF       FSR0L+0 
	MOVLW       0
	ADDWFC      FARG_checkWallCollision_ball_tmp+1, 0 
	MOVWF       FSR0L+1 
	MOVLW       128
	XORWF       POSTINC0+0, 0 
	MOVWF       R0 
	MOVLW       128
	XORLW       61
	SUBWF       R0, 0 
	BTFSS       STATUS+0, 0 
	GOTO        L_checkWallCollision2
;hit.h,19 :: 		ball_tmp->dy = -velocity;
	MOVLW       3
	ADDWF       FARG_checkWallCollision_ball_tmp+0, 0 
	MOVWF       FSR1L+0 
	MOVLW       0
	ADDWFC      FARG_checkWallCollision_ball_tmp+1, 0 
	MOVWF       FSR1L+1 
	MOVF        FARG_checkWallCollision_velocity+0, 0 
	SUBLW       0
	MOVWF       R0 
	MOVF        R0, 0 
	MOVWF       POSTINC1+0 
;hit.h,20 :: 		}
L_checkWallCollision2:
;hit.h,21 :: 		if (ball_tmp->posY <= 7){
	MOVLW       1
	ADDWF       FARG_checkWallCollision_ball_tmp+0, 0 
	MOVWF       FSR0L+0 
	MOVLW       0
	ADDWFC      FARG_checkWallCollision_ball_tmp+1, 0 
	MOVWF       FSR0L+1 
	MOVLW       128
	XORLW       7
	MOVWF       R0 
	MOVLW       128
	XORWF       POSTINC0+0, 0 
	SUBWF       R0, 0 
	BTFSS       STATUS+0, 0 
	GOTO        L_checkWallCollision3
;hit.h,22 :: 		ball_tmp->dy = velocity;
	MOVLW       3
	ADDWF       FARG_checkWallCollision_ball_tmp+0, 0 
	MOVWF       FSR1L+0 
	MOVLW       0
	ADDWFC      FARG_checkWallCollision_ball_tmp+1, 0 
	MOVWF       FSR1L+1 
	MOVF        FARG_checkWallCollision_velocity+0, 0 
	MOVWF       POSTINC1+0 
;hit.h,23 :: 		}
L_checkWallCollision3:
;hit.h,24 :: 		if (ball_tmp->posX >= 125){
	MOVFF       FARG_checkWallCollision_ball_tmp+0, FSR0L+0
	MOVFF       FARG_checkWallCollision_ball_tmp+1, FSR0H+0
	MOVF        POSTINC0+0, 0 
	MOVWF       R1 
	MOVLW       128
	XORWF       R1, 0 
	MOVWF       R0 
	MOVLW       128
	XORLW       125
	SUBWF       R0, 0 
	BTFSS       STATUS+0, 0 
	GOTO        L_checkWallCollision4
;hit.h,25 :: 		ball_tmp->dx = -velocity;
	MOVLW       2
	ADDWF       FARG_checkWallCollision_ball_tmp+0, 0 
	MOVWF       FSR1L+0 
	MOVLW       0
	ADDWFC      FARG_checkWallCollision_ball_tmp+1, 0 
	MOVWF       FSR1L+1 
	MOVF        FARG_checkWallCollision_velocity+0, 0 
	SUBLW       0
	MOVWF       R0 
	MOVF        R0, 0 
	MOVWF       POSTINC1+0 
;hit.h,26 :: 		}
L_checkWallCollision4:
;hit.h,27 :: 		if (ball_tmp->posX <= 0){
	MOVFF       FARG_checkWallCollision_ball_tmp+0, FSR0L+0
	MOVFF       FARG_checkWallCollision_ball_tmp+1, FSR0H+0
	MOVF        POSTINC0+0, 0 
	MOVWF       R1 
	MOVLW       128
	XORLW       0
	MOVWF       R0 
	MOVLW       128
	XORWF       R1, 0 
	SUBWF       R0, 0 
	BTFSS       STATUS+0, 0 
	GOTO        L_checkWallCollision5
;hit.h,28 :: 		ball_tmp->dx = velocity;
	MOVLW       2
	ADDWF       FARG_checkWallCollision_ball_tmp+0, 0 
	MOVWF       FSR1L+0 
	MOVLW       0
	ADDWFC      FARG_checkWallCollision_ball_tmp+1, 0 
	MOVWF       FSR1L+1 
	MOVF        FARG_checkWallCollision_velocity+0, 0 
	MOVWF       POSTINC1+0 
;hit.h,29 :: 		}
L_checkWallCollision5:
;hit.h,30 :: 		}
L_end_checkWallCollision:
	RETURN      0
; end of _checkWallCollision

_changeDirectionMode1:

;hit.h,32 :: 		void changeDirectionMode1(uint8 randNum, Generic *ball, uint8 velocity){
;hit.h,33 :: 		if (randNum == 0){
	MOVF        FARG_changeDirectionMode1_randNum+0, 0 
	XORLW       0
	BTFSS       STATUS+0, 2 
	GOTO        L_changeDirectionMode16
;hit.h,34 :: 		ball->dx = -velocity;
	MOVLW       2
	ADDWF       FARG_changeDirectionMode1_ball+0, 0 
	MOVWF       FSR1L+0 
	MOVLW       0
	ADDWFC      FARG_changeDirectionMode1_ball+1, 0 
	MOVWF       FSR1L+1 
	MOVF        FARG_changeDirectionMode1_velocity+0, 0 
	SUBLW       0
	MOVWF       R0 
	MOVF        R0, 0 
	MOVWF       POSTINC1+0 
;hit.h,35 :: 		ball->dy = velocity;
	MOVLW       3
	ADDWF       FARG_changeDirectionMode1_ball+0, 0 
	MOVWF       FSR1L+0 
	MOVLW       0
	ADDWFC      FARG_changeDirectionMode1_ball+1, 0 
	MOVWF       FSR1L+1 
	MOVF        FARG_changeDirectionMode1_velocity+0, 0 
	MOVWF       POSTINC1+0 
;hit.h,36 :: 		}
L_changeDirectionMode16:
;hit.h,37 :: 		if (randNum == 1){
	MOVF        FARG_changeDirectionMode1_randNum+0, 0 
	XORLW       1
	BTFSS       STATUS+0, 2 
	GOTO        L_changeDirectionMode17
;hit.h,38 :: 		ball->dx = -velocity;
	MOVLW       2
	ADDWF       FARG_changeDirectionMode1_ball+0, 0 
	MOVWF       FSR1L+0 
	MOVLW       0
	ADDWFC      FARG_changeDirectionMode1_ball+1, 0 
	MOVWF       FSR1L+1 
	MOVF        FARG_changeDirectionMode1_velocity+0, 0 
	SUBLW       0
	MOVWF       R0 
	MOVF        R0, 0 
	MOVWF       POSTINC1+0 
;hit.h,39 :: 		ball->dy = -velocity;
	MOVLW       3
	ADDWF       FARG_changeDirectionMode1_ball+0, 0 
	MOVWF       FSR1L+0 
	MOVLW       0
	ADDWFC      FARG_changeDirectionMode1_ball+1, 0 
	MOVWF       FSR1L+1 
	MOVF        FARG_changeDirectionMode1_velocity+0, 0 
	SUBLW       0
	MOVWF       R0 
	MOVF        R0, 0 
	MOVWF       POSTINC1+0 
;hit.h,40 :: 		}
L_changeDirectionMode17:
;hit.h,41 :: 		if (randNum == 2)
	MOVF        FARG_changeDirectionMode1_randNum+0, 0 
	XORLW       2
	BTFSS       STATUS+0, 2 
	GOTO        L_changeDirectionMode18
;hit.h,43 :: 		ball->dx = -velocity;
	MOVLW       2
	ADDWF       FARG_changeDirectionMode1_ball+0, 0 
	MOVWF       FSR1L+0 
	MOVLW       0
	ADDWFC      FARG_changeDirectionMode1_ball+1, 0 
	MOVWF       FSR1L+1 
	MOVF        FARG_changeDirectionMode1_velocity+0, 0 
	SUBLW       0
	MOVWF       R0 
	MOVF        R0, 0 
	MOVWF       POSTINC1+0 
;hit.h,44 :: 		ball->dy = 0;
	MOVLW       3
	ADDWF       FARG_changeDirectionMode1_ball+0, 0 
	MOVWF       FSR1L+0 
	MOVLW       0
	ADDWFC      FARG_changeDirectionMode1_ball+1, 0 
	MOVWF       FSR1L+1 
	CLRF        POSTINC1+0 
;hit.h,45 :: 		}
L_changeDirectionMode18:
;hit.h,47 :: 		}
L_end_changeDirectionMode1:
	RETURN      0
; end of _changeDirectionMode1

_changeDirectionMode2:

;hit.h,49 :: 		void changeDirectionMode2(uint8 randNum, Generic *ball, uint8 velocity){
;hit.h,50 :: 		if (randNum == 0){
	MOVF        FARG_changeDirectionMode2_randNum+0, 0 
	XORLW       0
	BTFSS       STATUS+0, 2 
	GOTO        L_changeDirectionMode29
;hit.h,51 :: 		ball->dx = velocity;
	MOVLW       2
	ADDWF       FARG_changeDirectionMode2_ball+0, 0 
	MOVWF       FSR1L+0 
	MOVLW       0
	ADDWFC      FARG_changeDirectionMode2_ball+1, 0 
	MOVWF       FSR1L+1 
	MOVF        FARG_changeDirectionMode2_velocity+0, 0 
	MOVWF       POSTINC1+0 
;hit.h,52 :: 		ball->dy = velocity;
	MOVLW       3
	ADDWF       FARG_changeDirectionMode2_ball+0, 0 
	MOVWF       FSR1L+0 
	MOVLW       0
	ADDWFC      FARG_changeDirectionMode2_ball+1, 0 
	MOVWF       FSR1L+1 
	MOVF        FARG_changeDirectionMode2_velocity+0, 0 
	MOVWF       POSTINC1+0 
;hit.h,53 :: 		}
L_changeDirectionMode29:
;hit.h,54 :: 		if (randNum == 1){
	MOVF        FARG_changeDirectionMode2_randNum+0, 0 
	XORLW       1
	BTFSS       STATUS+0, 2 
	GOTO        L_changeDirectionMode210
;hit.h,55 :: 		ball->dx = velocity;
	MOVLW       2
	ADDWF       FARG_changeDirectionMode2_ball+0, 0 
	MOVWF       FSR1L+0 
	MOVLW       0
	ADDWFC      FARG_changeDirectionMode2_ball+1, 0 
	MOVWF       FSR1L+1 
	MOVF        FARG_changeDirectionMode2_velocity+0, 0 
	MOVWF       POSTINC1+0 
;hit.h,56 :: 		ball->dy = -velocity;
	MOVLW       3
	ADDWF       FARG_changeDirectionMode2_ball+0, 0 
	MOVWF       FSR1L+0 
	MOVLW       0
	ADDWFC      FARG_changeDirectionMode2_ball+1, 0 
	MOVWF       FSR1L+1 
	MOVF        FARG_changeDirectionMode2_velocity+0, 0 
	SUBLW       0
	MOVWF       R0 
	MOVF        R0, 0 
	MOVWF       POSTINC1+0 
;hit.h,57 :: 		}
L_changeDirectionMode210:
;hit.h,58 :: 		if (randNum == 2){
	MOVF        FARG_changeDirectionMode2_randNum+0, 0 
	XORLW       2
	BTFSS       STATUS+0, 2 
	GOTO        L_changeDirectionMode211
;hit.h,59 :: 		ball->dx = velocity;
	MOVLW       2
	ADDWF       FARG_changeDirectionMode2_ball+0, 0 
	MOVWF       FSR1L+0 
	MOVLW       0
	ADDWFC      FARG_changeDirectionMode2_ball+1, 0 
	MOVWF       FSR1L+1 
	MOVF        FARG_changeDirectionMode2_velocity+0, 0 
	MOVWF       POSTINC1+0 
;hit.h,60 :: 		ball->dy = velocity;
	MOVLW       3
	ADDWF       FARG_changeDirectionMode2_ball+0, 0 
	MOVWF       FSR1L+0 
	MOVLW       0
	ADDWFC      FARG_changeDirectionMode2_ball+1, 0 
	MOVWF       FSR1L+1 
	MOVF        FARG_changeDirectionMode2_velocity+0, 0 
	MOVWF       POSTINC1+0 
;hit.h,61 :: 		}
L_changeDirectionMode211:
;hit.h,63 :: 		}
L_end_changeDirectionMode2:
	RETURN      0
; end of _changeDirectionMode2

_checkVerticalWall:

;hit.h,66 :: 		uint8 checkVerticalWall(Generic *ball_tmp){
;hit.h,67 :: 		if (ball_tmp->posX <= 0){
	MOVFF       FARG_checkVerticalWall_ball_tmp+0, FSR0L+0
	MOVFF       FARG_checkVerticalWall_ball_tmp+1, FSR0H+0
	MOVF        POSTINC0+0, 0 
	MOVWF       R1 
	MOVLW       128
	XORLW       0
	MOVWF       R0 
	MOVLW       128
	XORWF       R1, 0 
	SUBWF       R0, 0 
	BTFSS       STATUS+0, 0 
	GOTO        L_checkVerticalWall12
;hit.h,68 :: 		ball_tmp->posX = 64;
	MOVFF       FARG_checkVerticalWall_ball_tmp+0, FSR1L+0
	MOVFF       FARG_checkVerticalWall_ball_tmp+1, FSR1H+0
	MOVLW       64
	MOVWF       POSTINC1+0 
;hit.h,69 :: 		ball_tmp->posY = 32;
	MOVLW       1
	ADDWF       FARG_checkVerticalWall_ball_tmp+0, 0 
	MOVWF       FSR1L+0 
	MOVLW       0
	ADDWFC      FARG_checkVerticalWall_ball_tmp+1, 0 
	MOVWF       FSR1L+1 
	MOVLW       32
	MOVWF       POSTINC1+0 
;hit.h,70 :: 		ball_tmp->dx = 1;
	MOVLW       2
	ADDWF       FARG_checkVerticalWall_ball_tmp+0, 0 
	MOVWF       FSR1L+0 
	MOVLW       0
	ADDWFC      FARG_checkVerticalWall_ball_tmp+1, 0 
	MOVWF       FSR1L+1 
	MOVLW       1
	MOVWF       POSTINC1+0 
;hit.h,71 :: 		ball_tmp->dy = -1;
	MOVLW       3
	ADDWF       FARG_checkVerticalWall_ball_tmp+0, 0 
	MOVWF       FSR1L+0 
	MOVLW       0
	ADDWFC      FARG_checkVerticalWall_ball_tmp+1, 0 
	MOVWF       FSR1L+1 
	MOVLW       255
	MOVWF       POSTINC1+0 
;hit.h,72 :: 		return 0;
	CLRF        R0 
	GOTO        L_end_checkVerticalWall
;hit.h,73 :: 		}
L_checkVerticalWall12:
;hit.h,74 :: 		if (ball_tmp->posX >= 125){
	MOVFF       FARG_checkVerticalWall_ball_tmp+0, FSR0L+0
	MOVFF       FARG_checkVerticalWall_ball_tmp+1, FSR0H+0
	MOVF        POSTINC0+0, 0 
	MOVWF       R1 
	MOVLW       128
	XORWF       R1, 0 
	MOVWF       R0 
	MOVLW       128
	XORLW       125
	SUBWF       R0, 0 
	BTFSS       STATUS+0, 0 
	GOTO        L_checkVerticalWall13
;hit.h,75 :: 		ball_tmp->posX = 64;
	MOVFF       FARG_checkVerticalWall_ball_tmp+0, FSR1L+0
	MOVFF       FARG_checkVerticalWall_ball_tmp+1, FSR1H+0
	MOVLW       64
	MOVWF       POSTINC1+0 
;hit.h,76 :: 		ball_tmp->posY = 32;
	MOVLW       1
	ADDWF       FARG_checkVerticalWall_ball_tmp+0, 0 
	MOVWF       FSR1L+0 
	MOVLW       0
	ADDWFC      FARG_checkVerticalWall_ball_tmp+1, 0 
	MOVWF       FSR1L+1 
	MOVLW       32
	MOVWF       POSTINC1+0 
;hit.h,77 :: 		ball_tmp->dx = -1;
	MOVLW       2
	ADDWF       FARG_checkVerticalWall_ball_tmp+0, 0 
	MOVWF       FSR1L+0 
	MOVLW       0
	ADDWFC      FARG_checkVerticalWall_ball_tmp+1, 0 
	MOVWF       FSR1L+1 
	MOVLW       255
	MOVWF       POSTINC1+0 
;hit.h,78 :: 		ball_tmp->dy = 1;
	MOVLW       3
	ADDWF       FARG_checkVerticalWall_ball_tmp+0, 0 
	MOVWF       FSR1L+0 
	MOVLW       0
	ADDWFC      FARG_checkVerticalWall_ball_tmp+1, 0 
	MOVWF       FSR1L+1 
	MOVLW       1
	MOVWF       POSTINC1+0 
;hit.h,79 :: 		return 1;
	MOVLW       1
	MOVWF       R0 
	GOTO        L_end_checkVerticalWall
;hit.h,80 :: 		}
L_checkVerticalWall13:
;hit.h,82 :: 		return 2;
	MOVLW       2
	MOVWF       R0 
;hit.h,83 :: 		}
L_end_checkVerticalWall:
	RETURN      0
; end of _checkVerticalWall

_check_collision:

;hit.h,86 :: 		bool check_collision(Generic _ball, Objeto player)
;hit.h,88 :: 		return _ball.posX < (player.positionX + 2) &&
	MOVLW       2
	ADDWF       FARG_check_collision_player+0, 0 
	MOVWF       R1 
	CLRF        R2 
	MOVLW       0
	ADDWFC      R2, 1 
;hit.h,89 :: 		(_ball.posX + 3) > player.positionX &&
	MOVLW       128
	BTFSC       FARG_check_collision__ball+0, 7 
	MOVLW       127
	MOVWF       R0 
	MOVLW       128
	XORWF       R2, 0 
	SUBWF       R0, 0 
	BTFSS       STATUS+0, 2 
	GOTO        L__check_collision102
	MOVF        R1, 0 
	SUBWF       FARG_check_collision__ball+0, 0 
L__check_collision102:
	BTFSC       STATUS+0, 0 
	GOTO        L_check_collision15
	MOVLW       3
	ADDWF       FARG_check_collision__ball+0, 0 
	MOVWF       R1 
	MOVLW       0
	BTFSC       FARG_check_collision__ball+0, 7 
	MOVLW       255
	MOVWF       R2 
	MOVLW       0
	ADDWFC      R2, 1 
	MOVLW       128
	MOVWF       R0 
	MOVLW       128
	XORWF       R2, 0 
	SUBWF       R0, 0 
	BTFSS       STATUS+0, 2 
	GOTO        L__check_collision103
	MOVF        R1, 0 
	SUBWF       FARG_check_collision_player+0, 0 
L__check_collision103:
	BTFSC       STATUS+0, 0 
	GOTO        L_check_collision15
;hit.h,90 :: 		_ball.posY < (player.positionY + 14) &&
	MOVLW       14
	ADDWF       FARG_check_collision_player+1, 0 
	MOVWF       R1 
	CLRF        R2 
	MOVLW       0
	ADDWFC      R2, 1 
	MOVLW       128
	BTFSC       FARG_check_collision__ball+1, 7 
	MOVLW       127
	MOVWF       R0 
	MOVLW       128
	XORWF       R2, 0 
	SUBWF       R0, 0 
	BTFSS       STATUS+0, 2 
	GOTO        L__check_collision104
	MOVF        R1, 0 
	SUBWF       FARG_check_collision__ball+1, 0 
L__check_collision104:
	BTFSC       STATUS+0, 0 
	GOTO        L_check_collision15
;hit.h,91 :: 		(3 + _ball.posY) > player.positionY;
	MOVF        FARG_check_collision__ball+1, 0 
	ADDLW       3
	MOVWF       R1 
	CLRF        R2 
	MOVLW       0
	BTFSC       FARG_check_collision__ball+1, 7 
	MOVLW       255
	ADDWFC      R2, 1 
	MOVLW       128
	MOVWF       R0 
	MOVLW       128
	XORWF       R2, 0 
	SUBWF       R0, 0 
	BTFSS       STATUS+0, 2 
	GOTO        L__check_collision105
	MOVF        R1, 0 
	SUBWF       FARG_check_collision_player+1, 0 
L__check_collision105:
	BTFSC       STATUS+0, 0 
	GOTO        L_check_collision15
	MOVLW       1
	MOVWF       R0 
	GOTO        L_check_collision14
L_check_collision15:
	CLRF        R0 
L_check_collision14:
;hit.h,92 :: 		}
L_end_check_collision:
	RETURN      0
; end of _check_collision

_drawPaddleTwo:

;drawglcd.h,24 :: 		void drawPaddleTwo(Objeto *rect, uint8 color){
;drawglcd.h,25 :: 		Glcd_Rectangle_Round_Edges_Fill(rect->positionX, rect->positionY, rect->positionX - 2, rect->positionY + 14, 0, color);
	MOVFF       FARG_drawPaddleTwo_rect+0, FSR0L+0
	MOVFF       FARG_drawPaddleTwo_rect+1, FSR0H+0
	MOVF        POSTINC0+0, 0 
	MOVWF       R1 
	MOVF        R1, 0 
	MOVWF       FARG_Glcd_Rectangle_Round_Edges_Fill_x_upper_left+0 
	MOVLW       1
	ADDWF       FARG_drawPaddleTwo_rect+0, 0 
	MOVWF       FSR0L+0 
	MOVLW       0
	ADDWFC      FARG_drawPaddleTwo_rect+1, 0 
	MOVWF       FSR0L+1 
	MOVF        POSTINC0+0, 0 
	MOVWF       R0 
	MOVF        R0, 0 
	MOVWF       FARG_Glcd_Rectangle_Round_Edges_Fill_y_upper_left+0 
	MOVLW       2
	SUBWF       R1, 0 
	MOVWF       FARG_Glcd_Rectangle_Round_Edges_Fill_x_bottom_right+0 
	MOVLW       14
	ADDWF       R0, 0 
	MOVWF       FARG_Glcd_Rectangle_Round_Edges_Fill_y_bottom_right+0 
	CLRF        FARG_Glcd_Rectangle_Round_Edges_Fill_round_radius+0 
	MOVF        FARG_drawPaddleTwo_color+0, 0 
	MOVWF       FARG_Glcd_Rectangle_Round_Edges_Fill_color+0 
	CALL        _Glcd_Rectangle_Round_Edges_Fill+0, 0
;drawglcd.h,26 :: 		}
L_end_drawPaddleTwo:
	RETURN      0
; end of _drawPaddleTwo

_drawPaddleOne:

;drawglcd.h,28 :: 		void drawPaddleOne(Objeto *rect, uint8 color){
;drawglcd.h,30 :: 		Glcd_Rectangle_Round_Edges_Fill(rect->positionX, rect->positionY, rect->positionX + 2, rect->positionY + 14, 0, color);
	MOVFF       FARG_drawPaddleOne_rect+0, FSR0L+0
	MOVFF       FARG_drawPaddleOne_rect+1, FSR0H+0
	MOVF        POSTINC0+0, 0 
	MOVWF       R1 
	MOVF        R1, 0 
	MOVWF       FARG_Glcd_Rectangle_Round_Edges_Fill_x_upper_left+0 
	MOVLW       1
	ADDWF       FARG_drawPaddleOne_rect+0, 0 
	MOVWF       FSR0L+0 
	MOVLW       0
	ADDWFC      FARG_drawPaddleOne_rect+1, 0 
	MOVWF       FSR0L+1 
	MOVF        POSTINC0+0, 0 
	MOVWF       R0 
	MOVF        R0, 0 
	MOVWF       FARG_Glcd_Rectangle_Round_Edges_Fill_y_upper_left+0 
	MOVLW       2
	ADDWF       R1, 0 
	MOVWF       FARG_Glcd_Rectangle_Round_Edges_Fill_x_bottom_right+0 
	MOVLW       14
	ADDWF       R0, 0 
	MOVWF       FARG_Glcd_Rectangle_Round_Edges_Fill_y_bottom_right+0 
	CLRF        FARG_Glcd_Rectangle_Round_Edges_Fill_round_radius+0 
	MOVF        FARG_drawPaddleOne_color+0, 0 
	MOVWF       FARG_Glcd_Rectangle_Round_Edges_Fill_color+0 
	CALL        _Glcd_Rectangle_Round_Edges_Fill+0, 0
;drawglcd.h,31 :: 		}
L_end_drawPaddleOne:
	RETURN      0
; end of _drawPaddleOne

_drawBall:

;drawglcd.h,33 :: 		void drawBall(Generic *rect){
;drawglcd.h,35 :: 		Glcd_Box(rect->posX, rect->posY, rect->posX + 2, rect->posY + 2, 1);
	MOVFF       FARG_drawBall_rect+0, FSR0L+0
	MOVFF       FARG_drawBall_rect+1, FSR0H+0
	MOVF        POSTINC0+0, 0 
	MOVWF       R1 
	MOVF        R1, 0 
	MOVWF       FARG_Glcd_Box_x_upper_left+0 
	MOVLW       1
	ADDWF       FARG_drawBall_rect+0, 0 
	MOVWF       FSR0L+0 
	MOVLW       0
	ADDWFC      FARG_drawBall_rect+1, 0 
	MOVWF       FSR0L+1 
	MOVF        POSTINC0+0, 0 
	MOVWF       R0 
	MOVF        R0, 0 
	MOVWF       FARG_Glcd_Box_y_upper_left+0 
	MOVLW       2
	ADDWF       R1, 0 
	MOVWF       FARG_Glcd_Box_x_bottom_right+0 
	MOVLW       2
	ADDWF       R0, 0 
	MOVWF       FARG_Glcd_Box_y_bottom_right+0 
	MOVLW       1
	MOVWF       FARG_Glcd_Box_color+0 
	CALL        _Glcd_Box+0, 0
;drawglcd.h,36 :: 		}
L_end_drawBall:
	RETURN      0
; end of _drawBall

_drawNet:

;drawglcd.h,38 :: 		void drawNet()
;drawglcd.h,42 :: 		for ( i = 0; i < 14; i++)
	CLRF        drawNet_i_L0+0 
L_drawNet16:
	MOVLW       14
	SUBWF       drawNet_i_L0+0, 0 
	BTFSC       STATUS+0, 0 
	GOTO        L_drawNet17
;drawglcd.h,44 :: 		GLcd_V_Line(8 + i*4, 8 + i*4 + 1, 0 + 126/2, 1);
	MOVF        drawNet_i_L0+0, 0 
	MOVWF       R0 
	RLCF        R0, 1 
	BCF         R0, 0 
	RLCF        R0, 1 
	BCF         R0, 0 
	MOVLW       8
	ADDWF       R0, 1 
	MOVF        R0, 0 
	MOVWF       FARG_Glcd_V_Line_y_start+0 
	MOVF        R0, 0 
	ADDLW       1
	MOVWF       FARG_Glcd_V_Line_y_end+0 
	MOVLW       63
	MOVWF       FARG_Glcd_V_Line_x_pos+0 
	MOVLW       1
	MOVWF       FARG_Glcd_V_Line_color+0 
	CALL        _Glcd_V_Line+0, 0
;drawglcd.h,42 :: 		for ( i = 0; i < 14; i++)
	INCF        drawNet_i_L0+0, 1 
;drawglcd.h,45 :: 		}
	GOTO        L_drawNet16
L_drawNet17:
;drawglcd.h,47 :: 		}
L_end_drawNet:
	RETURN      0
; end of _drawNet

_drawNetAndWall:

;drawglcd.h,50 :: 		void drawNetAndWall(){
;drawglcd.h,51 :: 		Glcd_V_Line(10, 17, 62, 1);
	MOVLW       10
	MOVWF       FARG_Glcd_V_Line_y_start+0 
	MOVLW       17
	MOVWF       FARG_Glcd_V_Line_y_end+0 
	MOVLW       62
	MOVWF       FARG_Glcd_V_Line_x_pos+0 
	MOVLW       1
	MOVWF       FARG_Glcd_V_Line_color+0 
	CALL        _Glcd_V_Line+0, 0
;drawglcd.h,52 :: 		Glcd_V_Line(24, 31, 62, 1);
	MOVLW       24
	MOVWF       FARG_Glcd_V_Line_y_start+0 
	MOVLW       31
	MOVWF       FARG_Glcd_V_Line_y_end+0 
	MOVLW       62
	MOVWF       FARG_Glcd_V_Line_x_pos+0 
	MOVLW       1
	MOVWF       FARG_Glcd_V_Line_color+0 
	CALL        _Glcd_V_Line+0, 0
;drawglcd.h,53 :: 		Glcd_V_Line(38, 45, 62, 1);
	MOVLW       38
	MOVWF       FARG_Glcd_V_Line_y_start+0 
	MOVLW       45
	MOVWF       FARG_Glcd_V_Line_y_end+0 
	MOVLW       62
	MOVWF       FARG_Glcd_V_Line_x_pos+0 
	MOVLW       1
	MOVWF       FARG_Glcd_V_Line_color+0 
	CALL        _Glcd_V_Line+0, 0
;drawglcd.h,54 :: 		Glcd_V_Line(51, 59, 62, 1);
	MOVLW       51
	MOVWF       FARG_Glcd_V_Line_y_start+0 
	MOVLW       59
	MOVWF       FARG_Glcd_V_Line_y_end+0 
	MOVLW       62
	MOVWF       FARG_Glcd_V_Line_x_pos+0 
	MOVLW       1
	MOVWF       FARG_Glcd_V_Line_color+0 
	CALL        _Glcd_V_Line+0, 0
;drawglcd.h,55 :: 		Delay_ms(30);
	MOVLW       78
	MOVWF       R12, 0
	MOVLW       235
	MOVWF       R13, 0
L_drawNetAndWall19:
	DECFSZ      R13, 1, 1
	BRA         L_drawNetAndWall19
	DECFSZ      R12, 1, 1
	BRA         L_drawNetAndWall19
;drawglcd.h,57 :: 		}
L_end_drawNetAndWall:
	RETURN      0
; end of _drawNetAndWall

_staticUI:

;drawglcd.h,59 :: 		void staticUI()
;drawglcd.h,63 :: 		GLcd_V_Line(7, 63, 0, 1);
	MOVLW       7
	MOVWF       FARG_Glcd_V_Line_y_start+0 
	MOVLW       63
	MOVWF       FARG_Glcd_V_Line_y_end+0 
	CLRF        FARG_Glcd_V_Line_x_pos+0 
	MOVLW       1
	MOVWF       FARG_Glcd_V_Line_color+0 
	CALL        _Glcd_V_Line+0, 0
;drawglcd.h,64 :: 		GLcd_V_Line(7, 63, 127, 1);
	MOVLW       7
	MOVWF       FARG_Glcd_V_Line_y_start+0 
	MOVLW       63
	MOVWF       FARG_Glcd_V_Line_y_end+0 
	MOVLW       127
	MOVWF       FARG_Glcd_V_Line_x_pos+0 
	MOVLW       1
	MOVWF       FARG_Glcd_V_Line_color+0 
	CALL        _Glcd_V_Line+0, 0
;drawglcd.h,65 :: 		GLcd_H_Line(0, 127, 7, 1);
	CLRF        FARG_Glcd_H_Line_x_start+0 
	MOVLW       127
	MOVWF       FARG_Glcd_H_Line_x_end+0 
	MOVLW       7
	MOVWF       FARG_Glcd_H_Line_y_pos+0 
	MOVLW       1
	MOVWF       FARG_Glcd_H_Line_color+0 
	CALL        _Glcd_H_Line+0, 0
;drawglcd.h,66 :: 		GLcd_H_Line(0, 127, 63, 1);
	CLRF        FARG_Glcd_H_Line_x_start+0 
	MOVLW       127
	MOVWF       FARG_Glcd_H_Line_x_end+0 
	MOVLW       63
	MOVWF       FARG_Glcd_H_Line_y_pos+0 
	MOVLW       1
	MOVWF       FARG_Glcd_H_Line_color+0 
	CALL        _Glcd_H_Line+0, 0
;drawglcd.h,69 :: 		}
L_end_staticUI:
	RETURN      0
; end of _staticUI

_loseFrame:

;frames.h,53 :: 		void loseFrame(){
;frames.h,54 :: 		Glcd_Image(loseScreen);
	MOVLW       _loseScreen+0
	MOVWF       FARG_Glcd_Image_image+0 
	MOVLW       hi_addr(_loseScreen+0)
	MOVWF       FARG_Glcd_Image_image+1 
	MOVLW       higher_addr(_loseScreen+0)
	MOVWF       FARG_Glcd_Image_image+2 
	CALL        _Glcd_Image+0, 0
;frames.h,55 :: 		Delay_ms(4000);
	MOVLW       41
	MOVWF       R11, 0
	MOVLW       150
	MOVWF       R12, 0
	MOVLW       127
	MOVWF       R13, 0
L_loseFrame20:
	DECFSZ      R13, 1, 1
	BRA         L_loseFrame20
	DECFSZ      R12, 1, 1
	BRA         L_loseFrame20
	DECFSZ      R11, 1, 1
	BRA         L_loseFrame20
;frames.h,56 :: 		Glcd_Fill(0x00);
	CLRF        FARG_Glcd_Fill_pattern+0 
	CALL        _Glcd_Fill+0, 0
;frames.h,58 :: 		}
L_end_loseFrame:
	RETURN      0
; end of _loseFrame

_winFrame:

;frames.h,61 :: 		void winFrame(){
;frames.h,62 :: 		Glcd_Image(winScreen);
	MOVLW       _winScreen+0
	MOVWF       FARG_Glcd_Image_image+0 
	MOVLW       hi_addr(_winScreen+0)
	MOVWF       FARG_Glcd_Image_image+1 
	MOVLW       higher_addr(_winScreen+0)
	MOVWF       FARG_Glcd_Image_image+2 
	CALL        _Glcd_Image+0, 0
;frames.h,63 :: 		Delay_ms(4000);
	MOVLW       41
	MOVWF       R11, 0
	MOVLW       150
	MOVWF       R12, 0
	MOVLW       127
	MOVWF       R13, 0
L_winFrame21:
	DECFSZ      R13, 1, 1
	BRA         L_winFrame21
	DECFSZ      R12, 1, 1
	BRA         L_winFrame21
	DECFSZ      R11, 1, 1
	BRA         L_winFrame21
;frames.h,64 :: 		Glcd_Fill(0x00);
	CLRF        FARG_Glcd_Fill_pattern+0 
	CALL        _Glcd_Fill+0, 0
;frames.h,66 :: 		}
L_end_winFrame:
	RETURN      0
; end of _winFrame

_primerFrame:

;frames.h,70 :: 		void primerFrame(){
;frames.h,71 :: 		Glcd_Image(pantallaDeInicio);
	MOVLW       _pantallaDeInicio+0
	MOVWF       FARG_Glcd_Image_image+0 
	MOVLW       hi_addr(_pantallaDeInicio+0)
	MOVWF       FARG_Glcd_Image_image+1 
	MOVLW       higher_addr(_pantallaDeInicio+0)
	MOVWF       FARG_Glcd_Image_image+2 
	CALL        _Glcd_Image+0, 0
;frames.h,72 :: 		Delay_ms(4000);
	MOVLW       41
	MOVWF       R11, 0
	MOVLW       150
	MOVWF       R12, 0
	MOVLW       127
	MOVWF       R13, 0
L_primerFrame22:
	DECFSZ      R13, 1, 1
	BRA         L_primerFrame22
	DECFSZ      R12, 1, 1
	BRA         L_primerFrame22
	DECFSZ      R11, 1, 1
	BRA         L_primerFrame22
;frames.h,73 :: 		Glcd_Fill(0x00);
	CLRF        FARG_Glcd_Fill_pattern+0 
	CALL        _Glcd_Fill+0, 0
;frames.h,75 :: 		}
L_end_primerFrame:
	RETURN      0
; end of _primerFrame

_movePlayer:

;multiplayerInterrup.c,13 :: 		Objeto movePlayer(Objeto player)
	MOVF        R0, 0 
	MOVWF       _movePlayer_su_addr+0 
	MOVF        R1, 0 
	MOVWF       _movePlayer_su_addr+1 
;multiplayerInterrup.c,16 :: 		key = readKeys();
	MOVLW       FLOC__movePlayer+0
	MOVWF       R0 
	MOVLW       hi_addr(FLOC__movePlayer+0)
	MOVWF       R1 
	CALL        multiplayerInterrup_readKeys+0, 0
	MOVLW       5
	MOVWF       R0 
	MOVLW       movePlayer_key_L0+0
	MOVWF       FSR1L+0 
	MOVLW       hi_addr(movePlayer_key_L0+0)
	MOVWF       FSR1L+1 
	MOVLW       FLOC__movePlayer+0
	MOVWF       FSR0L+0 
	MOVLW       hi_addr(FLOC__movePlayer+0)
	MOVWF       FSR0L+1 
L_movePlayer23:
	MOVF        POSTINC0+0, 0 
	MOVWF       POSTINC1+0 
	DECF        R0, 1 
	BTFSS       STATUS+0, 2 
	GOTO        L_movePlayer23
;multiplayerInterrup.c,18 :: 		if (key.right){
	MOVF        movePlayer_key_L0+2, 1 
	BTFSC       STATUS+0, 2 
	GOTO        L_movePlayer24
;multiplayerInterrup.c,19 :: 		player.positionX = player.positionX + 1;
	MOVF        FARG_movePlayer_player+0, 0 
	ADDLW       1
	MOVWF       R0 
	MOVF        R0, 0 
	MOVWF       FARG_movePlayer_player+0 
;multiplayerInterrup.c,20 :: 		}
L_movePlayer24:
;multiplayerInterrup.c,22 :: 		if (key.left){
	MOVF        movePlayer_key_L0+3, 1 
	BTFSC       STATUS+0, 2 
	GOTO        L_movePlayer25
;multiplayerInterrup.c,23 :: 		player.positionX = player.positionX - 1;
	DECF        FARG_movePlayer_player+0, 0 
	MOVWF       R0 
	MOVF        R0, 0 
	MOVWF       FARG_movePlayer_player+0 
;multiplayerInterrup.c,24 :: 		}
L_movePlayer25:
;multiplayerInterrup.c,26 :: 		if (key.down){
	MOVF        movePlayer_key_L0+1, 1 
	BTFSC       STATUS+0, 2 
	GOTO        L_movePlayer26
;multiplayerInterrup.c,27 :: 		player.positionY = player.positionY + 1;
	MOVF        FARG_movePlayer_player+1, 0 
	ADDLW       1
	MOVWF       R0 
	MOVF        R0, 0 
	MOVWF       FARG_movePlayer_player+1 
;multiplayerInterrup.c,28 :: 		if (player.positionY >= 49){
	MOVLW       49
	SUBWF       FARG_movePlayer_player+1, 0 
	BTFSS       STATUS+0, 0 
	GOTO        L_movePlayer27
;multiplayerInterrup.c,29 :: 		player.positionY = 49;
	MOVLW       49
	MOVWF       FARG_movePlayer_player+1 
;multiplayerInterrup.c,30 :: 		}
L_movePlayer27:
;multiplayerInterrup.c,31 :: 		}
L_movePlayer26:
;multiplayerInterrup.c,33 :: 		if (key.up){
	MOVF        movePlayer_key_L0+0, 1 
	BTFSC       STATUS+0, 2 
	GOTO        L_movePlayer28
;multiplayerInterrup.c,34 :: 		player.positionY = player.positionY - 1;
	DECF        FARG_movePlayer_player+1, 0 
	MOVWF       R0 
	MOVF        R0, 0 
	MOVWF       FARG_movePlayer_player+1 
;multiplayerInterrup.c,35 :: 		if (player.positionY <= 7){
	MOVF        FARG_movePlayer_player+1, 0 
	SUBLW       7
	BTFSS       STATUS+0, 0 
	GOTO        L_movePlayer29
;multiplayerInterrup.c,36 :: 		player.positionY = 7;
	MOVLW       7
	MOVWF       FARG_movePlayer_player+1 
;multiplayerInterrup.c,37 :: 		}
L_movePlayer29:
;multiplayerInterrup.c,38 :: 		}
L_movePlayer28:
;multiplayerInterrup.c,40 :: 		return player;
	MOVLW       2
	MOVWF       R0 
	MOVF        _movePlayer_su_addr+0, 0 
	MOVWF       FSR1L+0 
	MOVF        _movePlayer_su_addr+1, 0 
	MOVWF       FSR1L+1 
	MOVLW       FARG_movePlayer_player+0
	MOVWF       FSR0L+0 
	MOVLW       hi_addr(FARG_movePlayer_player+0)
	MOVWF       FSR0L+1 
L_movePlayer30:
	MOVF        POSTINC0+0, 0 
	MOVWF       POSTINC1+0 
	DECF        R0, 1 
	BTFSS       STATUS+0, 2 
	GOTO        L_movePlayer30
;multiplayerInterrup.c,41 :: 		}
L_end_movePlayer:
	RETURN      0
; end of _movePlayer

_drawScore:

;multiplayerInterrup.c,43 :: 		void drawScore(uint8 a, uint8 b){
;multiplayerInterrup.c,47 :: 		ShortToStr(a, score_text);
	MOVF        FARG_drawScore_a+0, 0 
	MOVWF       FARG_ShortToStr_input+0 
	MOVLW       _score_text+0
	MOVWF       FARG_ShortToStr_output+0 
	MOVLW       hi_addr(_score_text+0)
	MOVWF       FARG_ShortToStr_output+1 
	CALL        _ShortToStr+0, 0
;multiplayerInterrup.c,48 :: 		fix_text = Ltrim(score_text);
	MOVLW       _score_text+0
	MOVWF       FARG_Ltrim_string+0 
	MOVLW       hi_addr(_score_text+0)
	MOVWF       FARG_Ltrim_string+1 
	CALL        _Ltrim+0, 0
	MOVF        R0, 0 
	MOVWF       drawScore_fix_text_L0+0 
	MOVF        R1, 0 
	MOVWF       drawScore_fix_text_L0+1 
;multiplayerInterrup.c,49 :: 		Glcd_Write_Text("P1", 118, 0, 1);
	MOVLW       ?lstr1_multiplayerInterrup+0
	MOVWF       FARG_Glcd_Write_Text_text+0 
	MOVLW       hi_addr(?lstr1_multiplayerInterrup+0)
	MOVWF       FARG_Glcd_Write_Text_text+1 
	MOVLW       118
	MOVWF       FARG_Glcd_Write_Text_x_pos+0 
	CLRF        FARG_Glcd_Write_Text_page_num+0 
	MOVLW       1
	MOVWF       FARG_Glcd_Write_Text_color+0 
	CALL        _Glcd_Write_Text+0, 0
;multiplayerInterrup.c,50 :: 		Glcd_Write_Text(fix_text, 95, 0, 1);
	MOVF        drawScore_fix_text_L0+0, 0 
	MOVWF       FARG_Glcd_Write_Text_text+0 
	MOVF        drawScore_fix_text_L0+1, 0 
	MOVWF       FARG_Glcd_Write_Text_text+1 
	MOVLW       95
	MOVWF       FARG_Glcd_Write_Text_x_pos+0 
	CLRF        FARG_Glcd_Write_Text_page_num+0 
	MOVLW       1
	MOVWF       FARG_Glcd_Write_Text_color+0 
	CALL        _Glcd_Write_Text+0, 0
;multiplayerInterrup.c,51 :: 		ShortToStr(b, score_text);
	MOVF        FARG_drawScore_b+0, 0 
	MOVWF       FARG_ShortToStr_input+0 
	MOVLW       _score_text+0
	MOVWF       FARG_ShortToStr_output+0 
	MOVLW       hi_addr(_score_text+0)
	MOVWF       FARG_ShortToStr_output+1 
	CALL        _ShortToStr+0, 0
;multiplayerInterrup.c,52 :: 		fix_text = Ltrim(score_text);
	MOVLW       _score_text+0
	MOVWF       FARG_Ltrim_string+0 
	MOVLW       hi_addr(_score_text+0)
	MOVWF       FARG_Ltrim_string+1 
	CALL        _Ltrim+0, 0
	MOVF        R0, 0 
	MOVWF       drawScore_fix_text_L0+0 
	MOVF        R1, 0 
	MOVWF       drawScore_fix_text_L0+1 
;multiplayerInterrup.c,53 :: 		Glcd_Write_Text("P2", 0, 0, 1);
	MOVLW       ?lstr2_multiplayerInterrup+0
	MOVWF       FARG_Glcd_Write_Text_text+0 
	MOVLW       hi_addr(?lstr2_multiplayerInterrup+0)
	MOVWF       FARG_Glcd_Write_Text_text+1 
	CLRF        FARG_Glcd_Write_Text_x_pos+0 
	CLRF        FARG_Glcd_Write_Text_page_num+0 
	MOVLW       1
	MOVWF       FARG_Glcd_Write_Text_color+0 
	CALL        _Glcd_Write_Text+0, 0
;multiplayerInterrup.c,54 :: 		Glcd_Write_Text(fix_text, 31, 0, 1);
	MOVF        drawScore_fix_text_L0+0, 0 
	MOVWF       FARG_Glcd_Write_Text_text+0 
	MOVF        drawScore_fix_text_L0+1, 0 
	MOVWF       FARG_Glcd_Write_Text_text+1 
	MOVLW       31
	MOVWF       FARG_Glcd_Write_Text_x_pos+0 
	CLRF        FARG_Glcd_Write_Text_page_num+0 
	MOVLW       1
	MOVWF       FARG_Glcd_Write_Text_color+0 
	CALL        _Glcd_Write_Text+0, 0
;multiplayerInterrup.c,55 :: 		}
L_end_drawScore:
	RETURN      0
; end of _drawScore

_moveBall:

;multiplayerInterrup.c,57 :: 		Generic moveBall(Generic ball)
	MOVF        R0, 0 
	MOVWF       R2 
	MOVF        R1, 0 
	MOVWF       R3 
;multiplayerInterrup.c,59 :: 		ball.posX = ball.posX + ball.dx;
	MOVF        FARG_moveBall_ball+2, 0 
	ADDWF       FARG_moveBall_ball+0, 0 
	MOVWF       R0 
	MOVF        R0, 0 
	MOVWF       FARG_moveBall_ball+0 
;multiplayerInterrup.c,60 :: 		ball.posY = ball.posY + ball.dy;
	MOVF        FARG_moveBall_ball+3, 0 
	ADDWF       FARG_moveBall_ball+1, 0 
	MOVWF       R0 
	MOVF        R0, 0 
	MOVWF       FARG_moveBall_ball+1 
;multiplayerInterrup.c,61 :: 		return ball;
	MOVLW       4
	MOVWF       R0 
	MOVF        R2, 0 
	MOVWF       FSR1L+0 
	MOVF        R3, 0 
	MOVWF       FSR1L+1 
	MOVLW       FARG_moveBall_ball+0
	MOVWF       FSR0L+0 
	MOVLW       hi_addr(FARG_moveBall_ball+0)
	MOVWF       FSR0L+1 
L_moveBall31:
	MOVF        POSTINC0+0, 0 
	MOVWF       POSTINC1+0 
	DECF        R0, 1 
	BTFSS       STATUS+0, 2 
	GOTO        L_moveBall31
;multiplayerInterrup.c,62 :: 		}
L_end_moveBall:
	RETURN      0
; end of _moveBall

_randint:

;multiplayerInterrup.c,65 :: 		uint8_t randint(uint8_t n)
;multiplayerInterrup.c,67 :: 		return (uint8_t)(rand() % (n+1));
	CALL        _rand+0, 0
	MOVF        FARG_randint_n+0, 0 
	ADDLW       1
	MOVWF       R4 
	CLRF        R5 
	MOVLW       0
	ADDWFC      R5, 1 
	CALL        _Div_16x16_S+0, 0
	MOVF        R8, 0 
	MOVWF       R0 
	MOVF        R9, 0 
	MOVWF       R1 
;multiplayerInterrup.c,68 :: 		}
L_end_randint:
	RETURN      0
; end of _randint

multiplayerInterrup_move_paddle_ai:

;multiplayerInterrup.c,70 :: 		static void move_paddle_ai(Objeto *pc, Generic *rtBall) {
;multiplayerInterrup.c,71 :: 		uint8 center = pc->positionY + 7;
	MOVLW       1
	ADDWF       FARG_multiplayerInterrup_move_paddle_ai_pc+0, 0 
	MOVWF       FSR0L+0 
	MOVLW       0
	ADDWFC      FARG_multiplayerInterrup_move_paddle_ai_pc+1, 0 
	MOVWF       FSR0L+1 
	MOVLW       7
	ADDWF       POSTINC0+0, 0 
	MOVWF       R2 
	CLRF        R3 
	MOVLW       0
	ADDWFC      R3, 1 
	MOVF        R2, 0 
	MOVWF       R4 
;multiplayerInterrup.c,72 :: 		if (rtBall->posY < center)
	MOVLW       1
	ADDWF       FARG_multiplayerInterrup_move_paddle_ai_rtBall+0, 0 
	MOVWF       FSR0L+0 
	MOVLW       0
	ADDWFC      FARG_multiplayerInterrup_move_paddle_ai_rtBall+1, 0 
	MOVWF       FSR0L+1 
	MOVF        POSTINC0+0, 0 
	MOVWF       R1 
	MOVLW       128
	BTFSC       R1, 7 
	MOVLW       127
	MOVWF       R0 
	MOVLW       128
	SUBWF       R0, 0 
	BTFSS       STATUS+0, 2 
	GOTO        L_multiplayerInterrup_move_paddle_ai120
	MOVF        R2, 0 
	SUBWF       R1, 0 
L_multiplayerInterrup_move_paddle_ai120:
	BTFSC       STATUS+0, 0 
	GOTO        L_multiplayerInterrup_move_paddle_ai32
;multiplayerInterrup.c,74 :: 		pc->positionY -= 1;
	MOVLW       1
	ADDWF       FARG_multiplayerInterrup_move_paddle_ai_pc+0, 0 
	MOVWF       R1 
	MOVLW       0
	ADDWFC      FARG_multiplayerInterrup_move_paddle_ai_pc+1, 0 
	MOVWF       R2 
	MOVFF       R1, FSR0L+0
	MOVFF       R2, FSR0H+0
	DECF        POSTINC0+0, 0 
	MOVWF       R0 
	MOVFF       R1, FSR1L+0
	MOVFF       R2, FSR1H+0
	MOVF        R0, 0 
	MOVWF       POSTINC1+0 
;multiplayerInterrup.c,75 :: 		if (pc->positionY <= 7)
	MOVLW       1
	ADDWF       FARG_multiplayerInterrup_move_paddle_ai_pc+0, 0 
	MOVWF       FSR0L+0 
	MOVLW       0
	ADDWFC      FARG_multiplayerInterrup_move_paddle_ai_pc+1, 0 
	MOVWF       FSR0L+1 
	MOVF        POSTINC0+0, 0 
	SUBLW       7
	BTFSS       STATUS+0, 0 
	GOTO        L_multiplayerInterrup_move_paddle_ai33
;multiplayerInterrup.c,77 :: 		pc->positionY = 7;
	MOVLW       1
	ADDWF       FARG_multiplayerInterrup_move_paddle_ai_pc+0, 0 
	MOVWF       FSR1L+0 
	MOVLW       0
	ADDWFC      FARG_multiplayerInterrup_move_paddle_ai_pc+1, 0 
	MOVWF       FSR1L+1 
	MOVLW       7
	MOVWF       POSTINC1+0 
;multiplayerInterrup.c,78 :: 		}
L_multiplayerInterrup_move_paddle_ai33:
;multiplayerInterrup.c,80 :: 		}
L_multiplayerInterrup_move_paddle_ai32:
;multiplayerInterrup.c,81 :: 		if (rtBall->posY > center)
	MOVLW       1
	ADDWF       FARG_multiplayerInterrup_move_paddle_ai_rtBall+0, 0 
	MOVWF       FSR0L+0 
	MOVLW       0
	ADDWFC      FARG_multiplayerInterrup_move_paddle_ai_rtBall+1, 0 
	MOVWF       FSR0L+1 
	MOVF        POSTINC0+0, 0 
	MOVWF       R1 
	MOVLW       128
	MOVWF       R0 
	MOVLW       128
	BTFSC       R1, 7 
	MOVLW       127
	SUBWF       R0, 0 
	BTFSS       STATUS+0, 2 
	GOTO        L_multiplayerInterrup_move_paddle_ai121
	MOVF        R1, 0 
	SUBWF       R4, 0 
L_multiplayerInterrup_move_paddle_ai121:
	BTFSC       STATUS+0, 0 
	GOTO        L_multiplayerInterrup_move_paddle_ai34
;multiplayerInterrup.c,83 :: 		pc->positionY += 1;
	MOVLW       1
	ADDWF       FARG_multiplayerInterrup_move_paddle_ai_pc+0, 0 
	MOVWF       R1 
	MOVLW       0
	ADDWFC      FARG_multiplayerInterrup_move_paddle_ai_pc+1, 0 
	MOVWF       R2 
	MOVFF       R1, FSR0L+0
	MOVFF       R2, FSR0H+0
	MOVF        POSTINC0+0, 0 
	ADDLW       1
	MOVWF       R0 
	MOVFF       R1, FSR1L+0
	MOVFF       R2, FSR1H+0
	MOVF        R0, 0 
	MOVWF       POSTINC1+0 
;multiplayerInterrup.c,84 :: 		if (pc->positionY >= 49)
	MOVLW       1
	ADDWF       FARG_multiplayerInterrup_move_paddle_ai_pc+0, 0 
	MOVWF       FSR0L+0 
	MOVLW       0
	ADDWFC      FARG_multiplayerInterrup_move_paddle_ai_pc+1, 0 
	MOVWF       FSR0L+1 
	MOVLW       49
	SUBWF       POSTINC0+0, 0 
	BTFSS       STATUS+0, 0 
	GOTO        L_multiplayerInterrup_move_paddle_ai35
;multiplayerInterrup.c,86 :: 		pc->positionY = 49;
	MOVLW       1
	ADDWF       FARG_multiplayerInterrup_move_paddle_ai_pc+0, 0 
	MOVWF       FSR1L+0 
	MOVLW       0
	ADDWFC      FARG_multiplayerInterrup_move_paddle_ai_pc+1, 0 
	MOVWF       FSR1L+1 
	MOVLW       49
	MOVWF       POSTINC1+0 
;multiplayerInterrup.c,87 :: 		}
L_multiplayerInterrup_move_paddle_ai35:
;multiplayerInterrup.c,88 :: 		}
L_multiplayerInterrup_move_paddle_ai34:
;multiplayerInterrup.c,90 :: 		}
L_end_move_paddle_ai:
	RETURN      0
; end of multiplayerInterrup_move_paddle_ai

_main:

;multiplayerInterrup.c,93 :: 		void main() {
;multiplayerInterrup.c,95 :: 		Objeto playerOne = {5, 25};
	MOVLW       5
	MOVWF       main_playerOne_L0+0 
	MOVLW       25
	MOVWF       main_playerOne_L0+1 
	MOVLW       5
	MOVWF       main_lastPlayerOne_L0+0 
	MOVLW       25
	MOVWF       main_lastPlayerOne_L0+1 
	MOVLW       5
	MOVWF       main_playerPC_L0+0 
	MOVLW       25
	MOVWF       main_playerPC_L0+1 
	MOVLW       64
	MOVWF       main_ball_L0+0 
	MOVLW       32
	MOVWF       main_ball_L0+1 
	MOVLW       255
	MOVWF       main_ball_L0+2 
	MOVLW       1
	MOVWF       main_ball_L0+3 
	MOVLW       1
	MOVWF       main_velocity_L0+0 
	CLRF        main_state_L0+0 
	CLRF        main_mode_L0+0 
	CLRF        main_point_L0+0 
	CLRF        main_scoreB_L0+0 
	CLRF        main_scoreA_L0+0 
;multiplayerInterrup.c,115 :: 		Serial_Init();
	CALL        multiplayerInterrup_Serial_Init+0, 0
;multiplayerInterrup.c,118 :: 		ADCON1=0x0F;
	MOVLW       15
	MOVWF       ADCON1+0 
;multiplayerInterrup.c,120 :: 		Glcd_Init();                                   // Initialize GLCD
	CALL        _Glcd_Init+0, 0
;multiplayerInterrup.c,121 :: 		Glcd_Fill(0x00);                               // Clear GLCD
	CLRF        FARG_Glcd_Fill_pattern+0 
	CALL        _Glcd_Fill+0, 0
;multiplayerInterrup.c,123 :: 		while (1)
L_main36:
;multiplayerInterrup.c,125 :: 		switch (state)
	GOTO        L_main38
;multiplayerInterrup.c,127 :: 		case 0:
L_main40:
;multiplayerInterrup.c,129 :: 		primerFrame();
	CALL        _primerFrame+0, 0
;multiplayerInterrup.c,130 :: 		state = 1;
	MOVLW       1
	MOVWF       main_state_L0+0 
;multiplayerInterrup.c,131 :: 		break;
	GOTO        L_main39
;multiplayerInterrup.c,133 :: 		case 1:
L_main41:
;multiplayerInterrup.c,136 :: 		while (1)
L_main42:
;multiplayerInterrup.c,138 :: 		markUART = getMark();
	CALL        _getMark+0, 0
;multiplayerInterrup.c,139 :: 		if (markUART == 0xF5)
	MOVF        R0, 0 
	XORLW       245
	BTFSS       STATUS+0, 2 
	GOTO        L_main44
;multiplayerInterrup.c,142 :: 		state = 3;
	MOVLW       3
	MOVWF       main_state_L0+0 
;multiplayerInterrup.c,143 :: 		break;
	GOTO        L_main43
;multiplayerInterrup.c,144 :: 		}
L_main44:
;multiplayerInterrup.c,146 :: 		key = readKeys();
	MOVLW       FLOC__main+0
	MOVWF       R0 
	MOVLW       hi_addr(FLOC__main+0)
	MOVWF       R1 
	CALL        multiplayerInterrup_readKeys+0, 0
	MOVLW       5
	MOVWF       R0 
	MOVLW       main_key_L0+0
	MOVWF       FSR1L+0 
	MOVLW       hi_addr(main_key_L0+0)
	MOVWF       FSR1L+1 
	MOVLW       FLOC__main+0
	MOVWF       FSR0L+0 
	MOVLW       hi_addr(FLOC__main+0)
	MOVWF       FSR0L+1 
L_main45:
	MOVF        POSTINC0+0, 0 
	MOVWF       POSTINC1+0 
	DECF        R0, 1 
	BTFSS       STATUS+0, 2 
	GOTO        L_main45
;multiplayerInterrup.c,147 :: 		if (mode == 0)
	MOVF        main_mode_L0+0, 0 
	XORLW       0
	BTFSS       STATUS+0, 2 
	GOTO        L_main46
;multiplayerInterrup.c,149 :: 		Glcd_Fill(0x00);
	CLRF        FARG_Glcd_Fill_pattern+0 
	CALL        _Glcd_Fill+0, 0
;multiplayerInterrup.c,150 :: 		Glcd_Image(seleccionDeJuego);
	MOVLW       _seleccionDeJuego+0
	MOVWF       FARG_Glcd_Image_image+0 
	MOVLW       hi_addr(_seleccionDeJuego+0)
	MOVWF       FARG_Glcd_Image_image+1 
	MOVLW       higher_addr(_seleccionDeJuego+0)
	MOVWF       FARG_Glcd_Image_image+2 
	CALL        _Glcd_Image+0, 0
;multiplayerInterrup.c,151 :: 		Glcd_Circle(25, 35, 4, 1);
	MOVLW       25
	MOVWF       FARG_Glcd_Circle_x_center+0 
	MOVLW       0
	MOVWF       FARG_Glcd_Circle_x_center+1 
	MOVLW       35
	MOVWF       FARG_Glcd_Circle_y_center+0 
	MOVLW       0
	MOVWF       FARG_Glcd_Circle_y_center+1 
	MOVLW       4
	MOVWF       FARG_Glcd_Circle_radius+0 
	MOVLW       0
	MOVWF       FARG_Glcd_Circle_radius+1 
	MOVLW       1
	MOVWF       FARG_Glcd_Circle_color+0 
	CALL        _Glcd_Circle+0, 0
;multiplayerInterrup.c,153 :: 		if (key.enter)
	MOVF        main_key_L0+4, 1 
	BTFSC       STATUS+0, 2 
	GOTO        L_main47
;multiplayerInterrup.c,155 :: 		state = 2;
	MOVLW       2
	MOVWF       main_state_L0+0 
;multiplayerInterrup.c,156 :: 		Glcd_Fill(0x00);
	CLRF        FARG_Glcd_Fill_pattern+0 
	CALL        _Glcd_Fill+0, 0
;multiplayerInterrup.c,158 :: 		break;
	GOTO        L_main43
;multiplayerInterrup.c,159 :: 		}
L_main47:
;multiplayerInterrup.c,162 :: 		if ((key.up) || (key.down))
	MOVF        main_key_L0+0, 1 
	BTFSS       STATUS+0, 2 
	GOTO        L__main94
	MOVF        main_key_L0+1, 1 
	BTFSS       STATUS+0, 2 
	GOTO        L__main94
	GOTO        L_main50
L__main94:
;multiplayerInterrup.c,164 :: 		Glcd_Fill(0x00);
	CLRF        FARG_Glcd_Fill_pattern+0 
	CALL        _Glcd_Fill+0, 0
;multiplayerInterrup.c,165 :: 		Glcd_Image(seleccionDeJuego);
	MOVLW       _seleccionDeJuego+0
	MOVWF       FARG_Glcd_Image_image+0 
	MOVLW       hi_addr(_seleccionDeJuego+0)
	MOVWF       FARG_Glcd_Image_image+1 
	MOVLW       higher_addr(_seleccionDeJuego+0)
	MOVWF       FARG_Glcd_Image_image+2 
	CALL        _Glcd_Image+0, 0
;multiplayerInterrup.c,166 :: 		Glcd_Circle(25, 48, 4, 1);
	MOVLW       25
	MOVWF       FARG_Glcd_Circle_x_center+0 
	MOVLW       0
	MOVWF       FARG_Glcd_Circle_x_center+1 
	MOVLW       48
	MOVWF       FARG_Glcd_Circle_y_center+0 
	MOVLW       0
	MOVWF       FARG_Glcd_Circle_y_center+1 
	MOVLW       4
	MOVWF       FARG_Glcd_Circle_radius+0 
	MOVLW       0
	MOVWF       FARG_Glcd_Circle_radius+1 
	MOVLW       1
	MOVWF       FARG_Glcd_Circle_color+0 
	CALL        _Glcd_Circle+0, 0
;multiplayerInterrup.c,167 :: 		mode = 1;
	MOVLW       1
	MOVWF       main_mode_L0+0 
;multiplayerInterrup.c,168 :: 		key.down = 0;
	CLRF        main_key_L0+1 
;multiplayerInterrup.c,169 :: 		key.up = 0;
	CLRF        main_key_L0+0 
;multiplayerInterrup.c,170 :: 		}
L_main50:
;multiplayerInterrup.c,172 :: 		}
L_main46:
;multiplayerInterrup.c,174 :: 		if (mode == 1)
	MOVF        main_mode_L0+0, 0 
	XORLW       1
	BTFSS       STATUS+0, 2 
	GOTO        L_main51
;multiplayerInterrup.c,176 :: 		Glcd_Fill(0x00);
	CLRF        FARG_Glcd_Fill_pattern+0 
	CALL        _Glcd_Fill+0, 0
;multiplayerInterrup.c,177 :: 		Glcd_Image(seleccionDeJuego);
	MOVLW       _seleccionDeJuego+0
	MOVWF       FARG_Glcd_Image_image+0 
	MOVLW       hi_addr(_seleccionDeJuego+0)
	MOVWF       FARG_Glcd_Image_image+1 
	MOVLW       higher_addr(_seleccionDeJuego+0)
	MOVWF       FARG_Glcd_Image_image+2 
	CALL        _Glcd_Image+0, 0
;multiplayerInterrup.c,178 :: 		Glcd_Circle(25, 48, 4, 1);
	MOVLW       25
	MOVWF       FARG_Glcd_Circle_x_center+0 
	MOVLW       0
	MOVWF       FARG_Glcd_Circle_x_center+1 
	MOVLW       48
	MOVWF       FARG_Glcd_Circle_y_center+0 
	MOVLW       0
	MOVWF       FARG_Glcd_Circle_y_center+1 
	MOVLW       4
	MOVWF       FARG_Glcd_Circle_radius+0 
	MOVLW       0
	MOVWF       FARG_Glcd_Circle_radius+1 
	MOVLW       1
	MOVWF       FARG_Glcd_Circle_color+0 
	CALL        _Glcd_Circle+0, 0
;multiplayerInterrup.c,180 :: 		if (key.enter)
	MOVF        main_key_L0+4, 1 
	BTFSC       STATUS+0, 2 
	GOTO        L_main52
;multiplayerInterrup.c,182 :: 		state = 3;
	MOVLW       3
	MOVWF       main_state_L0+0 
;multiplayerInterrup.c,183 :: 		Glcd_Fill(0x00);
	CLRF        FARG_Glcd_Fill_pattern+0 
	CALL        _Glcd_Fill+0, 0
;multiplayerInterrup.c,184 :: 		Serial_writeByte(0xF5);
	MOVLW       245
	MOVWF       FARG_Serial_writeByte_b+0 
	CALL        _Serial_writeByte+0, 0
;multiplayerInterrup.c,186 :: 		break;
	GOTO        L_main43
;multiplayerInterrup.c,187 :: 		}
L_main52:
;multiplayerInterrup.c,190 :: 		if ((key.up) || (key.down))
	MOVF        main_key_L0+0, 1 
	BTFSS       STATUS+0, 2 
	GOTO        L__main93
	MOVF        main_key_L0+1, 1 
	BTFSS       STATUS+0, 2 
	GOTO        L__main93
	GOTO        L_main55
L__main93:
;multiplayerInterrup.c,192 :: 		Glcd_Fill(0x00);
	CLRF        FARG_Glcd_Fill_pattern+0 
	CALL        _Glcd_Fill+0, 0
;multiplayerInterrup.c,193 :: 		Glcd_Image(seleccionDeJuego);
	MOVLW       _seleccionDeJuego+0
	MOVWF       FARG_Glcd_Image_image+0 
	MOVLW       hi_addr(_seleccionDeJuego+0)
	MOVWF       FARG_Glcd_Image_image+1 
	MOVLW       higher_addr(_seleccionDeJuego+0)
	MOVWF       FARG_Glcd_Image_image+2 
	CALL        _Glcd_Image+0, 0
;multiplayerInterrup.c,194 :: 		Glcd_Circle(25, 35, 4, 1);
	MOVLW       25
	MOVWF       FARG_Glcd_Circle_x_center+0 
	MOVLW       0
	MOVWF       FARG_Glcd_Circle_x_center+1 
	MOVLW       35
	MOVWF       FARG_Glcd_Circle_y_center+0 
	MOVLW       0
	MOVWF       FARG_Glcd_Circle_y_center+1 
	MOVLW       4
	MOVWF       FARG_Glcd_Circle_radius+0 
	MOVLW       0
	MOVWF       FARG_Glcd_Circle_radius+1 
	MOVLW       1
	MOVWF       FARG_Glcd_Circle_color+0 
	CALL        _Glcd_Circle+0, 0
;multiplayerInterrup.c,195 :: 		mode = 0;
	CLRF        main_mode_L0+0 
;multiplayerInterrup.c,196 :: 		key.down = 0;
	CLRF        main_key_L0+1 
;multiplayerInterrup.c,197 :: 		key.up = 0;
	CLRF        main_key_L0+0 
;multiplayerInterrup.c,198 :: 		}
L_main55:
;multiplayerInterrup.c,200 :: 		}
L_main51:
;multiplayerInterrup.c,201 :: 		Delay_ms(60);
	MOVLW       156
	MOVWF       R12, 0
	MOVLW       215
	MOVWF       R13, 0
L_main56:
	DECFSZ      R13, 1, 1
	BRA         L_main56
	DECFSZ      R12, 1, 1
	BRA         L_main56
;multiplayerInterrup.c,202 :: 		}
	GOTO        L_main42
L_main43:
;multiplayerInterrup.c,203 :: 		break;
	GOTO        L_main39
;multiplayerInterrup.c,205 :: 		case 2:
L_main57:
;multiplayerInterrup.c,211 :: 		while (1)
L_main58:
;multiplayerInterrup.c,213 :: 		drawPaddleOne(&playerOne, 0);
	MOVLW       main_playerOne_L0+0
	MOVWF       FARG_drawPaddleOne_rect+0 
	MOVLW       hi_addr(main_playerOne_L0+0)
	MOVWF       FARG_drawPaddleOne_rect+1 
	CLRF        FARG_drawPaddleOne_color+0 
	CALL        _drawPaddleOne+0, 0
;multiplayerInterrup.c,214 :: 		drawPaddleTwo(&playerPC, 0);
	MOVLW       main_playerPC_L0+0
	MOVWF       FARG_drawPaddleTwo_rect+0 
	MOVLW       hi_addr(main_playerPC_L0+0)
	MOVWF       FARG_drawPaddleTwo_rect+1 
	CLRF        FARG_drawPaddleTwo_color+0 
	CALL        _drawPaddleTwo+0, 0
;multiplayerInterrup.c,215 :: 		if (velocity > 3)
	MOVF        main_velocity_L0+0, 0 
	SUBLW       3
	BTFSC       STATUS+0, 0 
	GOTO        L_main60
;multiplayerInterrup.c,217 :: 		velocity = 3;
	MOVLW       3
	MOVWF       main_velocity_L0+0 
;multiplayerInterrup.c,218 :: 		}
L_main60:
;multiplayerInterrup.c,221 :: 		ball = moveBall(ball);
	MOVLW       4
	MOVWF       R0 
	MOVLW       FARG_moveBall_ball+0
	MOVWF       FSR1L+0 
	MOVLW       hi_addr(FARG_moveBall_ball+0)
	MOVWF       FSR1L+1 
	MOVLW       main_ball_L0+0
	MOVWF       FSR0L+0 
	MOVLW       hi_addr(main_ball_L0+0)
	MOVWF       FSR0L+1 
L_main61:
	MOVF        POSTINC0+0, 0 
	MOVWF       POSTINC1+0 
	DECF        R0, 1 
	BTFSS       STATUS+0, 2 
	GOTO        L_main61
	MOVLW       FLOC__main+0
	MOVWF       R0 
	MOVLW       hi_addr(FLOC__main+0)
	MOVWF       R1 
	CALL        _moveBall+0, 0
	MOVLW       4
	MOVWF       R0 
	MOVLW       main_ball_L0+0
	MOVWF       FSR1L+0 
	MOVLW       hi_addr(main_ball_L0+0)
	MOVWF       FSR1L+1 
	MOVLW       FLOC__main+0
	MOVWF       FSR0L+0 
	MOVLW       hi_addr(FLOC__main+0)
	MOVWF       FSR0L+1 
L_main62:
	MOVF        POSTINC0+0, 0 
	MOVWF       POSTINC1+0 
	DECF        R0, 1 
	BTFSS       STATUS+0, 2 
	GOTO        L_main62
;multiplayerInterrup.c,222 :: 		checkWallCollision(&ball, velocity);
	MOVLW       main_ball_L0+0
	MOVWF       FARG_checkWallCollision_ball_tmp+0 
	MOVLW       hi_addr(main_ball_L0+0)
	MOVWF       FARG_checkWallCollision_ball_tmp+1 
	MOVF        main_velocity_L0+0, 0 
	MOVWF       FARG_checkWallCollision_velocity+0 
	CALL        _checkWallCollision+0, 0
;multiplayerInterrup.c,224 :: 		playerOne = movePlayer(playerOne);
	MOVLW       2
	MOVWF       R0 
	MOVLW       FARG_movePlayer_player+0
	MOVWF       FSR1L+0 
	MOVLW       hi_addr(FARG_movePlayer_player+0)
	MOVWF       FSR1L+1 
	MOVLW       main_playerOne_L0+0
	MOVWF       FSR0L+0 
	MOVLW       hi_addr(main_playerOne_L0+0)
	MOVWF       FSR0L+1 
L_main63:
	MOVF        POSTINC0+0, 0 
	MOVWF       POSTINC1+0 
	DECF        R0, 1 
	BTFSS       STATUS+0, 2 
	GOTO        L_main63
	MOVLW       FLOC__main+0
	MOVWF       R0 
	MOVLW       hi_addr(FLOC__main+0)
	MOVWF       R1 
	CALL        _movePlayer+0, 0
	MOVLW       2
	MOVWF       R0 
	MOVLW       main_playerOne_L0+0
	MOVWF       FSR1L+0 
	MOVLW       hi_addr(main_playerOne_L0+0)
	MOVWF       FSR1L+1 
	MOVLW       FLOC__main+0
	MOVWF       FSR0L+0 
	MOVLW       hi_addr(FLOC__main+0)
	MOVWF       FSR0L+1 
L_main64:
	MOVF        POSTINC0+0, 0 
	MOVWF       POSTINC1+0 
	DECF        R0, 1 
	BTFSS       STATUS+0, 2 
	GOTO        L_main64
;multiplayerInterrup.c,225 :: 		move_paddle_ai(&playerPC, &ball);
	MOVLW       main_playerPC_L0+0
	MOVWF       FARG_multiplayerInterrup_move_paddle_ai_pc+0 
	MOVLW       hi_addr(main_playerPC_L0+0)
	MOVWF       FARG_multiplayerInterrup_move_paddle_ai_pc+1 
	MOVLW       main_ball_L0+0
	MOVWF       FARG_multiplayerInterrup_move_paddle_ai_rtBall+0 
	MOVLW       hi_addr(main_ball_L0+0)
	MOVWF       FARG_multiplayerInterrup_move_paddle_ai_rtBall+1 
	CALL        multiplayerInterrup_move_paddle_ai+0, 0
;multiplayerInterrup.c,227 :: 		if(check_collision(ball, playerOne)){
	MOVLW       4
	MOVWF       R0 
	MOVLW       FARG_check_collision__ball+0
	MOVWF       FSR1L+0 
	MOVLW       hi_addr(FARG_check_collision__ball+0)
	MOVWF       FSR1L+1 
	MOVLW       main_ball_L0+0
	MOVWF       FSR0L+0 
	MOVLW       hi_addr(main_ball_L0+0)
	MOVWF       FSR0L+1 
L_main65:
	MOVF        POSTINC0+0, 0 
	MOVWF       POSTINC1+0 
	DECF        R0, 1 
	BTFSS       STATUS+0, 2 
	GOTO        L_main65
	MOVLW       2
	MOVWF       R0 
	MOVLW       FARG_check_collision_player+0
	MOVWF       FSR1L+0 
	MOVLW       hi_addr(FARG_check_collision_player+0)
	MOVWF       FSR1L+1 
	MOVLW       main_playerOne_L0+0
	MOVWF       FSR0L+0 
	MOVLW       hi_addr(main_playerOne_L0+0)
	MOVWF       FSR0L+1 
L_main66:
	MOVF        POSTINC0+0, 0 
	MOVWF       POSTINC1+0 
	DECF        R0, 1 
	BTFSS       STATUS+0, 2 
	GOTO        L_main66
	CALL        _check_collision+0, 0
	MOVF        R0, 1 
	BTFSC       STATUS+0, 2 
	GOTO        L_main67
;multiplayerInterrup.c,228 :: 		velocity++;
	INCF        main_velocity_L0+0, 1 
;multiplayerInterrup.c,229 :: 		randNum = randint(2);
	MOVLW       2
	MOVWF       FARG_randint_n+0 
	CALL        _randint+0, 0
;multiplayerInterrup.c,230 :: 		changeDirectionMode1(randNum, &ball, velocity);
	MOVF        R0, 0 
	MOVWF       FARG_changeDirectionMode1_randNum+0 
	MOVLW       main_ball_L0+0
	MOVWF       FARG_changeDirectionMode1_ball+0 
	MOVLW       hi_addr(main_ball_L0+0)
	MOVWF       FARG_changeDirectionMode1_ball+1 
	MOVF        main_velocity_L0+0, 0 
	MOVWF       FARG_changeDirectionMode1_velocity+0 
	CALL        _changeDirectionMode1+0, 0
;multiplayerInterrup.c,231 :: 		}
L_main67:
;multiplayerInterrup.c,233 :: 		if(check_collision(ball, playerPC)){
	MOVLW       4
	MOVWF       R0 
	MOVLW       FARG_check_collision__ball+0
	MOVWF       FSR1L+0 
	MOVLW       hi_addr(FARG_check_collision__ball+0)
	MOVWF       FSR1L+1 
	MOVLW       main_ball_L0+0
	MOVWF       FSR0L+0 
	MOVLW       hi_addr(main_ball_L0+0)
	MOVWF       FSR0L+1 
L_main68:
	MOVF        POSTINC0+0, 0 
	MOVWF       POSTINC1+0 
	DECF        R0, 1 
	BTFSS       STATUS+0, 2 
	GOTO        L_main68
	MOVLW       2
	MOVWF       R0 
	MOVLW       FARG_check_collision_player+0
	MOVWF       FSR1L+0 
	MOVLW       hi_addr(FARG_check_collision_player+0)
	MOVWF       FSR1L+1 
	MOVLW       main_playerPC_L0+0
	MOVWF       FSR0L+0 
	MOVLW       hi_addr(main_playerPC_L0+0)
	MOVWF       FSR0L+1 
L_main69:
	MOVF        POSTINC0+0, 0 
	MOVWF       POSTINC1+0 
	DECF        R0, 1 
	BTFSS       STATUS+0, 2 
	GOTO        L_main69
	CALL        _check_collision+0, 0
	MOVF        R0, 1 
	BTFSC       STATUS+0, 2 
	GOTO        L_main70
;multiplayerInterrup.c,234 :: 		velocity++;
	INCF        main_velocity_L0+0, 1 
;multiplayerInterrup.c,235 :: 		randNum = randint(2);
	MOVLW       2
	MOVWF       FARG_randint_n+0 
	CALL        _randint+0, 0
;multiplayerInterrup.c,236 :: 		changeDirectionMode2(randNum, &ball, velocity);
	MOVF        R0, 0 
	MOVWF       FARG_changeDirectionMode2_randNum+0 
	MOVLW       main_ball_L0+0
	MOVWF       FARG_changeDirectionMode2_ball+0 
	MOVLW       hi_addr(main_ball_L0+0)
	MOVWF       FARG_changeDirectionMode2_ball+1 
	MOVF        main_velocity_L0+0, 0 
	MOVWF       FARG_changeDirectionMode2_velocity+0 
	CALL        _changeDirectionMode2+0, 0
;multiplayerInterrup.c,237 :: 		}
L_main70:
;multiplayerInterrup.c,239 :: 		point = checkVerticalWall(&Ball);
	MOVLW       main_ball_L0+0
	MOVWF       FARG_checkVerticalWall_ball_tmp+0 
	MOVLW       hi_addr(main_ball_L0+0)
	MOVWF       FARG_checkVerticalWall_ball_tmp+1 
	CALL        _checkVerticalWall+0, 0
	MOVF        R0, 0 
	MOVWF       main_point_L0+0 
;multiplayerInterrup.c,241 :: 		switch (point)
	GOTO        L_main71
;multiplayerInterrup.c,243 :: 		case 0:
L_main73:
;multiplayerInterrup.c,245 :: 		scoreA = scoreA + 5;
	MOVLW       5
	ADDWF       main_scoreA_L0+0, 0 
	MOVWF       R0 
	MOVF        R0, 0 
	MOVWF       main_scoreA_L0+0 
;multiplayerInterrup.c,246 :: 		drawScore(scoreA, scoreB);
	MOVF        R0, 0 
	MOVWF       FARG_drawScore_a+0 
	MOVF        main_scoreB_L0+0, 0 
	MOVWF       FARG_drawScore_b+0 
	CALL        _drawScore+0, 0
;multiplayerInterrup.c,247 :: 		velocity = 1;
	MOVLW       1
	MOVWF       main_velocity_L0+0 
;multiplayerInterrup.c,248 :: 		if (scoreA >= 10)
	MOVLW       10
	SUBWF       main_scoreA_L0+0, 0 
	BTFSS       STATUS+0, 0 
	GOTO        L_main74
;multiplayerInterrup.c,250 :: 		winFrame();
	CALL        _winFrame+0, 0
;multiplayerInterrup.c,251 :: 		state = 1;
	MOVLW       1
	MOVWF       main_state_L0+0 
;multiplayerInterrup.c,252 :: 		Delay_ms(50);
	MOVLW       130
	MOVWF       R12, 0
	MOVLW       221
	MOVWF       R13, 0
L_main75:
	DECFSZ      R13, 1, 1
	BRA         L_main75
	DECFSZ      R12, 1, 1
	BRA         L_main75
	NOP
	NOP
;multiplayerInterrup.c,254 :: 		}
L_main74:
;multiplayerInterrup.c,255 :: 		break;
	GOTO        L_main72
;multiplayerInterrup.c,257 :: 		case 1:
L_main76:
;multiplayerInterrup.c,259 :: 		scoreB = scoreB + 5;
	MOVLW       5
	ADDWF       main_scoreB_L0+0, 0 
	MOVWF       R0 
	MOVF        R0, 0 
	MOVWF       main_scoreB_L0+0 
;multiplayerInterrup.c,261 :: 		velocity = 1;
	MOVLW       1
	MOVWF       main_velocity_L0+0 
;multiplayerInterrup.c,262 :: 		drawScore(scoreA, scoreB);
	MOVF        main_scoreA_L0+0, 0 
	MOVWF       FARG_drawScore_a+0 
	MOVF        R0, 0 
	MOVWF       FARG_drawScore_b+0 
	CALL        _drawScore+0, 0
;multiplayerInterrup.c,263 :: 		if (scoreB >= 10)
	MOVLW       10
	SUBWF       main_scoreB_L0+0, 0 
	BTFSS       STATUS+0, 0 
	GOTO        L_main77
;multiplayerInterrup.c,265 :: 		loseFrame();
	CALL        _loseFrame+0, 0
;multiplayerInterrup.c,266 :: 		state = 1;
	MOVLW       1
	MOVWF       main_state_L0+0 
;multiplayerInterrup.c,267 :: 		Delay_ms(50);
	MOVLW       130
	MOVWF       R12, 0
	MOVLW       221
	MOVWF       R13, 0
L_main78:
	DECFSZ      R13, 1, 1
	BRA         L_main78
	DECFSZ      R12, 1, 1
	BRA         L_main78
	NOP
	NOP
;multiplayerInterrup.c,268 :: 		break;
	GOTO        L_main72
;multiplayerInterrup.c,269 :: 		}
L_main77:
;multiplayerInterrup.c,271 :: 		break;
	GOTO        L_main72
;multiplayerInterrup.c,273 :: 		case 2:
L_main79:
;multiplayerInterrup.c,275 :: 		drawScore(scoreA, scoreB);
	MOVF        main_scoreA_L0+0, 0 
	MOVWF       FARG_drawScore_a+0 
	MOVF        main_scoreB_L0+0, 0 
	MOVWF       FARG_drawScore_b+0 
	CALL        _drawScore+0, 0
;multiplayerInterrup.c,276 :: 		Delay_ms(32);
	MOVLW       84
	MOVWF       R12, 0
	MOVLW       28
	MOVWF       R13, 0
L_main80:
	DECFSZ      R13, 1, 1
	BRA         L_main80
	DECFSZ      R12, 1, 1
	BRA         L_main80
	NOP
;multiplayerInterrup.c,277 :: 		break;
	GOTO        L_main72
;multiplayerInterrup.c,279 :: 		default:
L_main81:
;multiplayerInterrup.c,280 :: 		break;
	GOTO        L_main72
;multiplayerInterrup.c,281 :: 		}
L_main71:
	MOVF        main_point_L0+0, 0 
	XORLW       0
	BTFSC       STATUS+0, 2 
	GOTO        L_main73
	MOVF        main_point_L0+0, 0 
	XORLW       1
	BTFSC       STATUS+0, 2 
	GOTO        L_main76
	MOVF        main_point_L0+0, 0 
	XORLW       2
	BTFSC       STATUS+0, 2 
	GOTO        L_main79
	GOTO        L_main81
L_main72:
;multiplayerInterrup.c,284 :: 		drawPaddleOne(&playerOne, 1);
	MOVLW       main_playerOne_L0+0
	MOVWF       FARG_drawPaddleOne_rect+0 
	MOVLW       hi_addr(main_playerOne_L0+0)
	MOVWF       FARG_drawPaddleOne_rect+1 
	MOVLW       1
	MOVWF       FARG_drawPaddleOne_color+0 
	CALL        _drawPaddleOne+0, 0
;multiplayerInterrup.c,285 :: 		drawPaddleTwo(&playerPC, 1);
	MOVLW       main_playerPC_L0+0
	MOVWF       FARG_drawPaddleTwo_rect+0 
	MOVLW       hi_addr(main_playerPC_L0+0)
	MOVWF       FARG_drawPaddleTwo_rect+1 
	MOVLW       1
	MOVWF       FARG_drawPaddleTwo_color+0 
	CALL        _drawPaddleTwo+0, 0
;multiplayerInterrup.c,286 :: 		drawBall(&ball);
	MOVLW       main_ball_L0+0
	MOVWF       FARG_drawBall_rect+0 
	MOVLW       hi_addr(main_ball_L0+0)
	MOVWF       FARG_drawBall_rect+1 
	CALL        _drawBall+0, 0
;multiplayerInterrup.c,287 :: 		drawNet();
	CALL        _drawNet+0, 0
;multiplayerInterrup.c,288 :: 		Delay_ms(16);
	MOVLW       42
	MOVWF       R12, 0
	MOVLW       141
	MOVWF       R13, 0
L_main82:
	DECFSZ      R13, 1, 1
	BRA         L_main82
	DECFSZ      R12, 1, 1
	BRA         L_main82
	NOP
	NOP
;multiplayerInterrup.c,290 :: 		if (state == 1)
	MOVF        main_state_L0+0, 0 
	XORLW       1
	BTFSS       STATUS+0, 2 
	GOTO        L_main83
;multiplayerInterrup.c,292 :: 		scoreA = 0;
	CLRF        main_scoreA_L0+0 
;multiplayerInterrup.c,293 :: 		scoreB = 0;
	CLRF        main_scoreB_L0+0 
;multiplayerInterrup.c,294 :: 		Glcd_Fill(0x00);
	CLRF        FARG_Glcd_Fill_pattern+0 
	CALL        _Glcd_Fill+0, 0
;multiplayerInterrup.c,295 :: 		break;
	GOTO        L_main59
;multiplayerInterrup.c,296 :: 		}
L_main83:
;multiplayerInterrup.c,297 :: 		}
	GOTO        L_main58
L_main59:
;multiplayerInterrup.c,300 :: 		break;
	GOTO        L_main39
;multiplayerInterrup.c,302 :: 		case 3:
L_main84:
;multiplayerInterrup.c,304 :: 		Glcd_Fill(0x00);
	CLRF        FARG_Glcd_Fill_pattern+0 
	CALL        _Glcd_Fill+0, 0
;multiplayerInterrup.c,305 :: 		while (1)
L_main85:
;multiplayerInterrup.c,314 :: 		drawPaddleOne(&playerOne, 0);
	MOVLW       main_playerOne_L0+0
	MOVWF       FARG_drawPaddleOne_rect+0 
	MOVLW       hi_addr(main_playerOne_L0+0)
	MOVWF       FARG_drawPaddleOne_rect+1 
	CLRF        FARG_drawPaddleOne_color+0 
	CALL        _drawPaddleOne+0, 0
;multiplayerInterrup.c,317 :: 		lastPlayerOne = playerOne;
	MOVLW       2
	MOVWF       R0 
	MOVLW       main_lastPlayerOne_L0+0
	MOVWF       FSR1L+0 
	MOVLW       hi_addr(main_lastPlayerOne_L0+0)
	MOVWF       FSR1L+1 
	MOVLW       main_playerOne_L0+0
	MOVWF       FSR0L+0 
	MOVLW       hi_addr(main_playerOne_L0+0)
	MOVWF       FSR0L+1 
L_main87:
	MOVF        POSTINC0+0, 0 
	MOVWF       POSTINC1+0 
	DECF        R0, 1 
	BTFSS       STATUS+0, 2 
	GOTO        L_main87
;multiplayerInterrup.c,318 :: 		playerOne = movePlayer(playerOne);
	MOVLW       2
	MOVWF       R0 
	MOVLW       FARG_movePlayer_player+0
	MOVWF       FSR1L+0 
	MOVLW       hi_addr(FARG_movePlayer_player+0)
	MOVWF       FSR1L+1 
	MOVLW       main_playerOne_L0+0
	MOVWF       FSR0L+0 
	MOVLW       hi_addr(main_playerOne_L0+0)
	MOVWF       FSR0L+1 
L_main88:
	MOVF        POSTINC0+0, 0 
	MOVWF       POSTINC1+0 
	DECF        R0, 1 
	BTFSS       STATUS+0, 2 
	GOTO        L_main88
	MOVLW       FLOC__main+0
	MOVWF       R0 
	MOVLW       hi_addr(FLOC__main+0)
	MOVWF       R1 
	CALL        _movePlayer+0, 0
	MOVLW       2
	MOVWF       R0 
	MOVLW       main_playerOne_L0+0
	MOVWF       FSR1L+0 
	MOVLW       hi_addr(main_playerOne_L0+0)
	MOVWF       FSR1L+1 
	MOVLW       FLOC__main+0
	MOVWF       FSR0L+0 
	MOVLW       hi_addr(FLOC__main+0)
	MOVWF       FSR0L+1 
L_main89:
	MOVF        POSTINC0+0, 0 
	MOVWF       POSTINC1+0 
	DECF        R0, 1 
	BTFSS       STATUS+0, 2 
	GOTO        L_main89
;multiplayerInterrup.c,322 :: 		if (lastPlayerOne.positionY != playerOne.positionY)
	MOVF        main_lastPlayerOne_L0+1, 0 
	XORWF       main_playerOne_L0+1, 0 
	BTFSC       STATUS+0, 2 
	GOTO        L_main90
;multiplayerInterrup.c,324 :: 		Serial_writeByte(0xCC);
	MOVLW       204
	MOVWF       FARG_Serial_writeByte_b+0 
	CALL        _Serial_writeByte+0, 0
;multiplayerInterrup.c,325 :: 		Serial_Write(&playerOne, sizeof(playerOne));
	MOVLW       main_playerOne_L0+0
	MOVWF       FARG_Serial_Write_buf+0 
	MOVLW       hi_addr(main_playerOne_L0+0)
	MOVWF       FARG_Serial_Write_buf+1 
	MOVLW       2
	MOVWF       FARG_Serial_Write_n+0 
	MOVLW       0
	MOVWF       FARG_Serial_Write_n+1 
	CALL        _Serial_Write+0, 0
;multiplayerInterrup.c,326 :: 		Delay_ms(25);
	MOVLW       65
	MOVWF       R12, 0
	MOVLW       238
	MOVWF       R13, 0
L_main91:
	DECFSZ      R13, 1, 1
	BRA         L_main91
	DECFSZ      R12, 1, 1
	BRA         L_main91
	NOP
;multiplayerInterrup.c,327 :: 		}
L_main90:
;multiplayerInterrup.c,373 :: 		drawPaddleOne(&playerOne, 1);
	MOVLW       main_playerOne_L0+0
	MOVWF       FARG_drawPaddleOne_rect+0 
	MOVLW       hi_addr(main_playerOne_L0+0)
	MOVWF       FARG_drawPaddleOne_rect+1 
	MOVLW       1
	MOVWF       FARG_drawPaddleOne_color+0 
	CALL        _drawPaddleOne+0, 0
;multiplayerInterrup.c,476 :: 		}
	GOTO        L_main85
;multiplayerInterrup.c,479 :: 		default:
L_main92:
;multiplayerInterrup.c,480 :: 		break;
	GOTO        L_main39
;multiplayerInterrup.c,481 :: 		}
L_main38:
	MOVF        main_state_L0+0, 0 
	XORLW       0
	BTFSC       STATUS+0, 2 
	GOTO        L_main40
	MOVF        main_state_L0+0, 0 
	XORLW       1
	BTFSC       STATUS+0, 2 
	GOTO        L_main41
	MOVF        main_state_L0+0, 0 
	XORLW       2
	BTFSC       STATUS+0, 2 
	GOTO        L_main57
	MOVF        main_state_L0+0, 0 
	XORLW       3
	BTFSC       STATUS+0, 2 
	GOTO        L_main84
	GOTO        L_main92
L_main39:
;multiplayerInterrup.c,483 :: 		}
	GOTO        L_main36
;multiplayerInterrup.c,484 :: 		}
L_end_main:
	GOTO        $+0
; end of _main
