
multiplayerInterrup_Serial_Init:

;serial.h,23 :: 		static void Serial_Init()
;serial.h,25 :: 		ADCON1 = 0x0F; // turn analog off
	MOVLW       15
	MOVWF       ADCON1+0 
;serial.h,27 :: 		UART1_Init(9600); // initialize hardware UART @baudrate=115200, the same setting for the sensor
	BSF         BAUDCON+0, 3, 0
	CLRF        SPBRGH+0 
	MOVLW       207
	MOVWF       SPBRG+0 
	BSF         TXSTA+0, 2, 0
	CALL        _UART1_Init+0, 0
;serial.h,28 :: 		Delay_ms(100);    // let them stablize
	MOVLW       2
	MOVWF       R11, 0
	MOVLW       4
	MOVWF       R12, 0
	MOVLW       186
	MOVWF       R13, 0
L_multiplayerInterrup_Serial_Init0:
	DECFSZ      R13, 1, 1
	BRA         L_multiplayerInterrup_Serial_Init0
	DECFSZ      R12, 1, 1
	BRA         L_multiplayerInterrup_Serial_Init0
	DECFSZ      R11, 1, 1
	BRA         L_multiplayerInterrup_Serial_Init0
	NOP
;serial.h,30 :: 		PIE1.RCIE = 1; // enable interrupt source
	BSF         PIE1+0, 5 
;serial.h,31 :: 		INTCON.PEIE = 1;
	BSF         INTCON+0, 6 
;serial.h,32 :: 		INTCON.GIE = 1;
	BSF         INTCON+0, 7 
;serial.h,33 :: 		}
L_end_Serial_Init:
	RETURN      0
; end of multiplayerInterrup_Serial_Init

multiplayerInterrup_readKeys:

;keys.h,12 :: 		static inline Keys readKeys()
	MOVF        R0, 0 
	MOVWF       R2 
	MOVF        R1, 0 
	MOVWF       R3 
;keys.h,16 :: 		tmp.right = PORTA.B0 == 1;
	CLRF        R1 
	BTFSC       PORTA+0, 0 
	INCF        R1, 1 
	MOVF        R1, 0 
	XORLW       1
	MOVLW       1
	BTFSS       STATUS+0, 2 
	MOVLW       0
	MOVWF       R0 
	MOVF        R0, 0 
	MOVWF       R6 
;keys.h,17 :: 		tmp.left  = PORTA.B1 == 1;
	CLRF        R1 
	BTFSC       PORTA+0, 1 
	INCF        R1, 1 
	MOVF        R1, 0 
	XORLW       1
	MOVLW       1
	BTFSS       STATUS+0, 2 
	MOVLW       0
	MOVWF       R0 
	MOVF        R0, 0 
	MOVWF       R7 
;keys.h,18 :: 		tmp.up    = PORTA.B2 == 1;
	CLRF        R1 
	BTFSC       PORTA+0, 2 
	INCF        R1, 1 
	MOVF        R1, 0 
	XORLW       1
	MOVLW       1
	BTFSS       STATUS+0, 2 
	MOVLW       0
	MOVWF       R0 
	MOVF        R0, 0 
	MOVWF       R4 
;keys.h,19 :: 		tmp.down  = PORTA.B3 == 1;
	CLRF        R1 
	BTFSC       PORTA+0, 3 
	INCF        R1, 1 
	MOVF        R1, 0 
	XORLW       1
	MOVLW       1
	BTFSS       STATUS+0, 2 
	MOVLW       0
	MOVWF       R0 
	MOVF        R0, 0 
	MOVWF       R5 
;keys.h,20 :: 		tmp.enter = PORTA.B4 == 1;
	CLRF        R1 
	BTFSC       PORTA+0, 4 
	INCF        R1, 1 
	MOVF        R1, 0 
	XORLW       1
	MOVLW       1
	BTFSS       STATUS+0, 2 
	MOVLW       0
	MOVWF       R0 
	MOVF        R0, 0 
	MOVWF       R8 
;keys.h,21 :: 		return tmp;
	MOVLW       5
	MOVWF       R0 
	MOVF        R2, 0 
	MOVWF       FSR1L+0 
	MOVF        R3, 0 
	MOVWF       FSR1L+1 
	MOVLW       4
	MOVWF       FSR0L+0 
	MOVLW       0
	MOVWF       FSR0L+1 
L_multiplayerInterrup_readKeys1:
	MOVF        POSTINC0+0, 0 
	MOVWF       POSTINC1+0 
	DECF        R0, 1 
	BTFSS       STATUS+0, 2 
	GOTO        L_multiplayerInterrup_readKeys1
;keys.h,22 :: 		}
L_end_readKeys:
	RETURN      0
; end of multiplayerInterrup_readKeys

_checkWallCollision:

;hit.h,16 :: 		void checkWallCollision(Generic *ball_tmp)
;hit.h,18 :: 		if (ball_tmp->posY >= 61){
	MOVLW       1
	ADDWF       FARG_checkWallCollision_ball_tmp+0, 0 
	MOVWF       FSR0L+0 
	MOVLW       0
	ADDWFC      FARG_checkWallCollision_ball_tmp+1, 0 
	MOVWF       FSR0L+1 
	MOVLW       61
	SUBWF       POSTINC0+0, 0 
	BTFSS       STATUS+0, 0 
	GOTO        L_checkWallCollision2
;hit.h,19 :: 		ball_tmp->dy = -1;
	MOVLW       3
	ADDWF       FARG_checkWallCollision_ball_tmp+0, 0 
	MOVWF       FSR1L+0 
	MOVLW       0
	ADDWFC      FARG_checkWallCollision_ball_tmp+1, 0 
	MOVWF       FSR1L+1 
	MOVLW       255
	MOVWF       POSTINC1+0 
;hit.h,20 :: 		}
L_checkWallCollision2:
;hit.h,21 :: 		if (ball_tmp->posY <= 7){
	MOVLW       1
	ADDWF       FARG_checkWallCollision_ball_tmp+0, 0 
	MOVWF       FSR0L+0 
	MOVLW       0
	ADDWFC      FARG_checkWallCollision_ball_tmp+1, 0 
	MOVWF       FSR0L+1 
	MOVF        POSTINC0+0, 0 
	SUBLW       7
	BTFSS       STATUS+0, 0 
	GOTO        L_checkWallCollision3
;hit.h,22 :: 		ball_tmp->dy = 1;
	MOVLW       3
	ADDWF       FARG_checkWallCollision_ball_tmp+0, 0 
	MOVWF       FSR1L+0 
	MOVLW       0
	ADDWFC      FARG_checkWallCollision_ball_tmp+1, 0 
	MOVWF       FSR1L+1 
	MOVLW       1
	MOVWF       POSTINC1+0 
;hit.h,23 :: 		}
L_checkWallCollision3:
;hit.h,24 :: 		}
L_end_checkWallCollision:
	RETURN      0
; end of _checkWallCollision

_changeDirectionMode1:

;hit.h,26 :: 		void changeDirectionMode1(uint8 randNum, Generic *ball){
;hit.h,27 :: 		if (randNum == 0){
	MOVF        FARG_changeDirectionMode1_randNum+0, 0 
	XORLW       0
	BTFSS       STATUS+0, 2 
	GOTO        L_changeDirectionMode14
;hit.h,28 :: 		ball->dx = -1;
	MOVLW       2
	ADDWF       FARG_changeDirectionMode1_ball+0, 0 
	MOVWF       FSR1L+0 
	MOVLW       0
	ADDWFC      FARG_changeDirectionMode1_ball+1, 0 
	MOVWF       FSR1L+1 
	MOVLW       255
	MOVWF       POSTINC1+0 
;hit.h,29 :: 		ball->dy = 1;
	MOVLW       3
	ADDWF       FARG_changeDirectionMode1_ball+0, 0 
	MOVWF       FSR1L+0 
	MOVLW       0
	ADDWFC      FARG_changeDirectionMode1_ball+1, 0 
	MOVWF       FSR1L+1 
	MOVLW       1
	MOVWF       POSTINC1+0 
;hit.h,30 :: 		}
L_changeDirectionMode14:
;hit.h,31 :: 		if (randNum == 1){
	MOVF        FARG_changeDirectionMode1_randNum+0, 0 
	XORLW       1
	BTFSS       STATUS+0, 2 
	GOTO        L_changeDirectionMode15
;hit.h,32 :: 		ball->dx = -1;
	MOVLW       2
	ADDWF       FARG_changeDirectionMode1_ball+0, 0 
	MOVWF       FSR1L+0 
	MOVLW       0
	ADDWFC      FARG_changeDirectionMode1_ball+1, 0 
	MOVWF       FSR1L+1 
	MOVLW       255
	MOVWF       POSTINC1+0 
;hit.h,33 :: 		ball->dy = -1;
	MOVLW       3
	ADDWF       FARG_changeDirectionMode1_ball+0, 0 
	MOVWF       FSR1L+0 
	MOVLW       0
	ADDWFC      FARG_changeDirectionMode1_ball+1, 0 
	MOVWF       FSR1L+1 
	MOVLW       255
	MOVWF       POSTINC1+0 
;hit.h,34 :: 		}
L_changeDirectionMode15:
;hit.h,35 :: 		}
L_end_changeDirectionMode1:
	RETURN      0
; end of _changeDirectionMode1

_changeDirectionMode2:

;hit.h,37 :: 		void changeDirectionMode2(uint8 randNum, Generic *ball){
;hit.h,38 :: 		if (randNum == 0){
	MOVF        FARG_changeDirectionMode2_randNum+0, 0 
	XORLW       0
	BTFSS       STATUS+0, 2 
	GOTO        L_changeDirectionMode26
;hit.h,39 :: 		ball->dx = 1;
	MOVLW       2
	ADDWF       FARG_changeDirectionMode2_ball+0, 0 
	MOVWF       FSR1L+0 
	MOVLW       0
	ADDWFC      FARG_changeDirectionMode2_ball+1, 0 
	MOVWF       FSR1L+1 
	MOVLW       1
	MOVWF       POSTINC1+0 
;hit.h,40 :: 		ball->dy = 1;
	MOVLW       3
	ADDWF       FARG_changeDirectionMode2_ball+0, 0 
	MOVWF       FSR1L+0 
	MOVLW       0
	ADDWFC      FARG_changeDirectionMode2_ball+1, 0 
	MOVWF       FSR1L+1 
	MOVLW       1
	MOVWF       POSTINC1+0 
;hit.h,41 :: 		}
L_changeDirectionMode26:
;hit.h,42 :: 		if (randNum == 1){
	MOVF        FARG_changeDirectionMode2_randNum+0, 0 
	XORLW       1
	BTFSS       STATUS+0, 2 
	GOTO        L_changeDirectionMode27
;hit.h,43 :: 		ball->dx = 1;
	MOVLW       2
	ADDWF       FARG_changeDirectionMode2_ball+0, 0 
	MOVWF       FSR1L+0 
	MOVLW       0
	ADDWFC      FARG_changeDirectionMode2_ball+1, 0 
	MOVWF       FSR1L+1 
	MOVLW       1
	MOVWF       POSTINC1+0 
;hit.h,44 :: 		ball->dy = -1;
	MOVLW       3
	ADDWF       FARG_changeDirectionMode2_ball+0, 0 
	MOVWF       FSR1L+0 
	MOVLW       0
	ADDWFC      FARG_changeDirectionMode2_ball+1, 0 
	MOVWF       FSR1L+1 
	MOVLW       255
	MOVWF       POSTINC1+0 
;hit.h,45 :: 		}
L_changeDirectionMode27:
;hit.h,46 :: 		}
L_end_changeDirectionMode2:
	RETURN      0
; end of _changeDirectionMode2

_checkVerticalWall:

;hit.h,49 :: 		uint8 checkVerticalWall(Generic *ball_tmp){
;hit.h,50 :: 		if (ball_tmp->posX <= 0){
	MOVFF       FARG_checkVerticalWall_ball_tmp+0, FSR0L+0
	MOVFF       FARG_checkVerticalWall_ball_tmp+1, FSR0H+0
	MOVF        POSTINC0+0, 0 
	MOVWF       R1 
	MOVF        R1, 0 
	SUBLW       0
	BTFSS       STATUS+0, 0 
	GOTO        L_checkVerticalWall8
;hit.h,51 :: 		ball_tmp->posX = 64;
	MOVFF       FARG_checkVerticalWall_ball_tmp+0, FSR1L+0
	MOVFF       FARG_checkVerticalWall_ball_tmp+1, FSR1H+0
	MOVLW       64
	MOVWF       POSTINC1+0 
;hit.h,52 :: 		ball_tmp->posY = 32;
	MOVLW       1
	ADDWF       FARG_checkVerticalWall_ball_tmp+0, 0 
	MOVWF       FSR1L+0 
	MOVLW       0
	ADDWFC      FARG_checkVerticalWall_ball_tmp+1, 0 
	MOVWF       FSR1L+1 
	MOVLW       32
	MOVWF       POSTINC1+0 
;hit.h,53 :: 		ball_tmp->dx = 1;
	MOVLW       2
	ADDWF       FARG_checkVerticalWall_ball_tmp+0, 0 
	MOVWF       FSR1L+0 
	MOVLW       0
	ADDWFC      FARG_checkVerticalWall_ball_tmp+1, 0 
	MOVWF       FSR1L+1 
	MOVLW       1
	MOVWF       POSTINC1+0 
;hit.h,54 :: 		ball_tmp->dy = -1;
	MOVLW       3
	ADDWF       FARG_checkVerticalWall_ball_tmp+0, 0 
	MOVWF       FSR1L+0 
	MOVLW       0
	ADDWFC      FARG_checkVerticalWall_ball_tmp+1, 0 
	MOVWF       FSR1L+1 
	MOVLW       255
	MOVWF       POSTINC1+0 
;hit.h,55 :: 		return 0;
	CLRF        R0 
	GOTO        L_end_checkVerticalWall
;hit.h,56 :: 		}
L_checkVerticalWall8:
;hit.h,57 :: 		if (ball_tmp->posX >= 125){
	MOVFF       FARG_checkVerticalWall_ball_tmp+0, FSR0L+0
	MOVFF       FARG_checkVerticalWall_ball_tmp+1, FSR0H+0
	MOVF        POSTINC0+0, 0 
	MOVWF       R1 
	MOVLW       125
	SUBWF       R1, 0 
	BTFSS       STATUS+0, 0 
	GOTO        L_checkVerticalWall9
;hit.h,58 :: 		ball_tmp->posX = 64;
	MOVFF       FARG_checkVerticalWall_ball_tmp+0, FSR1L+0
	MOVFF       FARG_checkVerticalWall_ball_tmp+1, FSR1H+0
	MOVLW       64
	MOVWF       POSTINC1+0 
;hit.h,59 :: 		ball_tmp->posY = 32;
	MOVLW       1
	ADDWF       FARG_checkVerticalWall_ball_tmp+0, 0 
	MOVWF       FSR1L+0 
	MOVLW       0
	ADDWFC      FARG_checkVerticalWall_ball_tmp+1, 0 
	MOVWF       FSR1L+1 
	MOVLW       32
	MOVWF       POSTINC1+0 
;hit.h,60 :: 		ball_tmp->dx = -1;
	MOVLW       2
	ADDWF       FARG_checkVerticalWall_ball_tmp+0, 0 
	MOVWF       FSR1L+0 
	MOVLW       0
	ADDWFC      FARG_checkVerticalWall_ball_tmp+1, 0 
	MOVWF       FSR1L+1 
	MOVLW       255
	MOVWF       POSTINC1+0 
;hit.h,61 :: 		ball_tmp->dy = 1;
	MOVLW       3
	ADDWF       FARG_checkVerticalWall_ball_tmp+0, 0 
	MOVWF       FSR1L+0 
	MOVLW       0
	ADDWFC      FARG_checkVerticalWall_ball_tmp+1, 0 
	MOVWF       FSR1L+1 
	MOVLW       1
	MOVWF       POSTINC1+0 
;hit.h,62 :: 		return 1;
	MOVLW       1
	MOVWF       R0 
	GOTO        L_end_checkVerticalWall
;hit.h,63 :: 		}
L_checkVerticalWall9:
;hit.h,65 :: 		return 2;
	MOVLW       2
	MOVWF       R0 
;hit.h,66 :: 		}
L_end_checkVerticalWall:
	RETURN      0
; end of _checkVerticalWall

_check_collision:

;hit.h,69 :: 		bool check_collision(Generic _ball, Objeto player)
;hit.h,71 :: 		return _ball.posX < (player.positionX + 2) &&
	MOVLW       2
	ADDWF       FARG_check_collision_player+0, 0 
	MOVWF       R1 
	CLRF        R2 
	MOVLW       0
	ADDWFC      R2, 1 
;hit.h,72 :: 		(_ball.posX + 3) > player.positionX &&
	MOVLW       128
	MOVWF       R0 
	MOVLW       128
	XORWF       R2, 0 
	SUBWF       R0, 0 
	BTFSS       STATUS+0, 2 
	GOTO        L__check_collision105
	MOVF        R1, 0 
	SUBWF       FARG_check_collision__ball+0, 0 
L__check_collision105:
	BTFSC       STATUS+0, 0 
	GOTO        L_check_collision11
	MOVLW       3
	ADDWF       FARG_check_collision__ball+0, 0 
	MOVWF       R1 
	CLRF        R2 
	MOVLW       0
	ADDWFC      R2, 1 
	MOVLW       128
	MOVWF       R0 
	MOVLW       128
	XORWF       R2, 0 
	SUBWF       R0, 0 
	BTFSS       STATUS+0, 2 
	GOTO        L__check_collision106
	MOVF        R1, 0 
	SUBWF       FARG_check_collision_player+0, 0 
L__check_collision106:
	BTFSC       STATUS+0, 0 
	GOTO        L_check_collision11
;hit.h,73 :: 		_ball.posY < (player.positionY + 14) &&
	MOVLW       14
	ADDWF       FARG_check_collision_player+1, 0 
	MOVWF       R1 
	CLRF        R2 
	MOVLW       0
	ADDWFC      R2, 1 
	MOVLW       128
	MOVWF       R0 
	MOVLW       128
	XORWF       R2, 0 
	SUBWF       R0, 0 
	BTFSS       STATUS+0, 2 
	GOTO        L__check_collision107
	MOVF        R1, 0 
	SUBWF       FARG_check_collision__ball+1, 0 
L__check_collision107:
	BTFSC       STATUS+0, 0 
	GOTO        L_check_collision11
;hit.h,74 :: 		(3 + _ball.posY) > player.positionY;
	MOVF        FARG_check_collision__ball+1, 0 
	ADDLW       3
	MOVWF       R1 
	CLRF        R2 
	MOVLW       0
	ADDWFC      R2, 1 
	MOVLW       128
	MOVWF       R0 
	MOVLW       128
	XORWF       R2, 0 
	SUBWF       R0, 0 
	BTFSS       STATUS+0, 2 
	GOTO        L__check_collision108
	MOVF        R1, 0 
	SUBWF       FARG_check_collision_player+1, 0 
L__check_collision108:
	BTFSC       STATUS+0, 0 
	GOTO        L_check_collision11
	MOVLW       1
	MOVWF       R0 
	GOTO        L_check_collision10
L_check_collision11:
	CLRF        R0 
L_check_collision10:
;hit.h,75 :: 		}
L_end_check_collision:
	RETURN      0
; end of _check_collision

_drawPaddleTwo:

;drawglcd.h,24 :: 		void drawPaddleTwo(Objeto *rect){
;drawglcd.h,25 :: 		Glcd_Rectangle(rect->positionX, rect->positionY, rect->positionX - 2, rect->positionY + 14, 1);
	MOVFF       FARG_drawPaddleTwo_rect+0, FSR0L+0
	MOVFF       FARG_drawPaddleTwo_rect+1, FSR0H+0
	MOVF        POSTINC0+0, 0 
	MOVWF       R1 
	MOVF        R1, 0 
	MOVWF       FARG_Glcd_Rectangle_x_upper_left+0 
	MOVLW       1
	ADDWF       FARG_drawPaddleTwo_rect+0, 0 
	MOVWF       FSR0L+0 
	MOVLW       0
	ADDWFC      FARG_drawPaddleTwo_rect+1, 0 
	MOVWF       FSR0L+1 
	MOVF        POSTINC0+0, 0 
	MOVWF       R0 
	MOVF        R0, 0 
	MOVWF       FARG_Glcd_Rectangle_y_upper_left+0 
	MOVLW       2
	SUBWF       R1, 0 
	MOVWF       FARG_Glcd_Rectangle_x_bottom_right+0 
	MOVLW       14
	ADDWF       R0, 0 
	MOVWF       FARG_Glcd_Rectangle_y_bottom_right+0 
	MOVLW       1
	MOVWF       FARG_Glcd_Rectangle_color+0 
	CALL        _Glcd_Rectangle+0, 0
;drawglcd.h,26 :: 		}
L_end_drawPaddleTwo:
	RETURN      0
; end of _drawPaddleTwo

_drawPaddleOne:

;drawglcd.h,28 :: 		void drawPaddleOne(Objeto *rect){
;drawglcd.h,29 :: 		Glcd_Rectangle(rect->positionX, rect->positionY, rect->positionX + 2, rect->positionY + 14, 1);
	MOVFF       FARG_drawPaddleOne_rect+0, FSR0L+0
	MOVFF       FARG_drawPaddleOne_rect+1, FSR0H+0
	MOVF        POSTINC0+0, 0 
	MOVWF       R1 
	MOVF        R1, 0 
	MOVWF       FARG_Glcd_Rectangle_x_upper_left+0 
	MOVLW       1
	ADDWF       FARG_drawPaddleOne_rect+0, 0 
	MOVWF       FSR0L+0 
	MOVLW       0
	ADDWFC      FARG_drawPaddleOne_rect+1, 0 
	MOVWF       FSR0L+1 
	MOVF        POSTINC0+0, 0 
	MOVWF       R0 
	MOVF        R0, 0 
	MOVWF       FARG_Glcd_Rectangle_y_upper_left+0 
	MOVLW       2
	ADDWF       R1, 0 
	MOVWF       FARG_Glcd_Rectangle_x_bottom_right+0 
	MOVLW       14
	ADDWF       R0, 0 
	MOVWF       FARG_Glcd_Rectangle_y_bottom_right+0 
	MOVLW       1
	MOVWF       FARG_Glcd_Rectangle_color+0 
	CALL        _Glcd_Rectangle+0, 0
;drawglcd.h,30 :: 		}
L_end_drawPaddleOne:
	RETURN      0
; end of _drawPaddleOne

_drawBall:

;drawglcd.h,32 :: 		void drawBall(Generic *rect){
;drawglcd.h,33 :: 		Glcd_Rectangle(rect->posX, rect->posY, rect->posX + 2, rect->posY + 2, 1);
	MOVFF       FARG_drawBall_rect+0, FSR0L+0
	MOVFF       FARG_drawBall_rect+1, FSR0H+0
	MOVF        POSTINC0+0, 0 
	MOVWF       R1 
	MOVF        R1, 0 
	MOVWF       FARG_Glcd_Rectangle_x_upper_left+0 
	MOVLW       1
	ADDWF       FARG_drawBall_rect+0, 0 
	MOVWF       FSR0L+0 
	MOVLW       0
	ADDWFC      FARG_drawBall_rect+1, 0 
	MOVWF       FSR0L+1 
	MOVF        POSTINC0+0, 0 
	MOVWF       R0 
	MOVF        R0, 0 
	MOVWF       FARG_Glcd_Rectangle_y_upper_left+0 
	MOVLW       2
	ADDWF       R1, 0 
	MOVWF       FARG_Glcd_Rectangle_x_bottom_right+0 
	MOVLW       2
	ADDWF       R0, 0 
	MOVWF       FARG_Glcd_Rectangle_y_bottom_right+0 
	MOVLW       1
	MOVWF       FARG_Glcd_Rectangle_color+0 
	CALL        _Glcd_Rectangle+0, 0
;drawglcd.h,34 :: 		}
L_end_drawBall:
	RETURN      0
; end of _drawBall

_drawNetAndWall:

;drawglcd.h,36 :: 		void drawNetAndWall(){
;drawglcd.h,37 :: 		Glcd_V_Line(10, 17, 62, 1);
	MOVLW       10
	MOVWF       FARG_Glcd_V_Line_y_start+0 
	MOVLW       17
	MOVWF       FARG_Glcd_V_Line_y_end+0 
	MOVLW       62
	MOVWF       FARG_Glcd_V_Line_x_pos+0 
	MOVLW       1
	MOVWF       FARG_Glcd_V_Line_color+0 
	CALL        _Glcd_V_Line+0, 0
;drawglcd.h,38 :: 		Glcd_V_Line(24, 31, 62, 1);
	MOVLW       24
	MOVWF       FARG_Glcd_V_Line_y_start+0 
	MOVLW       31
	MOVWF       FARG_Glcd_V_Line_y_end+0 
	MOVLW       62
	MOVWF       FARG_Glcd_V_Line_x_pos+0 
	MOVLW       1
	MOVWF       FARG_Glcd_V_Line_color+0 
	CALL        _Glcd_V_Line+0, 0
;drawglcd.h,39 :: 		Glcd_V_Line(38, 45, 62, 1);
	MOVLW       38
	MOVWF       FARG_Glcd_V_Line_y_start+0 
	MOVLW       45
	MOVWF       FARG_Glcd_V_Line_y_end+0 
	MOVLW       62
	MOVWF       FARG_Glcd_V_Line_x_pos+0 
	MOVLW       1
	MOVWF       FARG_Glcd_V_Line_color+0 
	CALL        _Glcd_V_Line+0, 0
;drawglcd.h,40 :: 		Glcd_V_Line(51, 59, 62, 1);
	MOVLW       51
	MOVWF       FARG_Glcd_V_Line_y_start+0 
	MOVLW       59
	MOVWF       FARG_Glcd_V_Line_y_end+0 
	MOVLW       62
	MOVWF       FARG_Glcd_V_Line_x_pos+0 
	MOVLW       1
	MOVWF       FARG_Glcd_V_Line_color+0 
	CALL        _Glcd_V_Line+0, 0
;drawglcd.h,41 :: 		Glcd_H_Line(0, 127, 7, 1);
	CLRF        FARG_Glcd_H_Line_x_start+0 
	MOVLW       127
	MOVWF       FARG_Glcd_H_Line_x_end+0 
	MOVLW       7
	MOVWF       FARG_Glcd_H_Line_y_pos+0 
	MOVLW       1
	MOVWF       FARG_Glcd_H_Line_color+0 
	CALL        _Glcd_H_Line+0, 0
;drawglcd.h,42 :: 		}
L_end_drawNetAndWall:
	RETURN      0
; end of _drawNetAndWall

_winFrame:

;frames.h,41 :: 		void winFrame(){
;frames.h,42 :: 		Glcd_Image(winScreen);
	MOVLW       _winScreen+0
	MOVWF       FARG_Glcd_Image_image+0 
	MOVLW       hi_addr(_winScreen+0)
	MOVWF       FARG_Glcd_Image_image+1 
	MOVLW       higher_addr(_winScreen+0)
	MOVWF       FARG_Glcd_Image_image+2 
	CALL        _Glcd_Image+0, 0
;frames.h,43 :: 		Delay_ms(4000);
	MOVLW       41
	MOVWF       R11, 0
	MOVLW       150
	MOVWF       R12, 0
	MOVLW       127
	MOVWF       R13, 0
L_winFrame12:
	DECFSZ      R13, 1, 1
	BRA         L_winFrame12
	DECFSZ      R12, 1, 1
	BRA         L_winFrame12
	DECFSZ      R11, 1, 1
	BRA         L_winFrame12
;frames.h,44 :: 		Glcd_Fill(0x00);
	CLRF        FARG_Glcd_Fill_pattern+0 
	CALL        _Glcd_Fill+0, 0
;frames.h,46 :: 		}
L_end_winFrame:
	RETURN      0
; end of _winFrame

_primerFrame:

;frames.h,50 :: 		void primerFrame(){
;frames.h,51 :: 		Glcd_Image(pantallaDeInicio);
	MOVLW       _pantallaDeInicio+0
	MOVWF       FARG_Glcd_Image_image+0 
	MOVLW       hi_addr(_pantallaDeInicio+0)
	MOVWF       FARG_Glcd_Image_image+1 
	MOVLW       higher_addr(_pantallaDeInicio+0)
	MOVWF       FARG_Glcd_Image_image+2 
	CALL        _Glcd_Image+0, 0
;frames.h,52 :: 		Delay_ms(4000);
	MOVLW       41
	MOVWF       R11, 0
	MOVLW       150
	MOVWF       R12, 0
	MOVLW       127
	MOVWF       R13, 0
L_primerFrame13:
	DECFSZ      R13, 1, 1
	BRA         L_primerFrame13
	DECFSZ      R12, 1, 1
	BRA         L_primerFrame13
	DECFSZ      R11, 1, 1
	BRA         L_primerFrame13
;frames.h,53 :: 		Glcd_Fill(0x00);
	CLRF        FARG_Glcd_Fill_pattern+0 
	CALL        _Glcd_Fill+0, 0
;frames.h,55 :: 		}
L_end_primerFrame:
	RETURN      0
; end of _primerFrame

_movePlayer:

;multiplayerInterrup.c,13 :: 		Objeto movePlayer(Objeto player)
	MOVF        R0, 0 
	MOVWF       _movePlayer_su_addr+0 
	MOVF        R1, 0 
	MOVWF       _movePlayer_su_addr+1 
;multiplayerInterrup.c,16 :: 		key = readKeys();
	MOVLW       FLOC__movePlayer+0
	MOVWF       R0 
	MOVLW       hi_addr(FLOC__movePlayer+0)
	MOVWF       R1 
	CALL        multiplayerInterrup_readKeys+0, 0
	MOVLW       5
	MOVWF       R0 
	MOVLW       movePlayer_key_L0+0
	MOVWF       FSR1L+0 
	MOVLW       hi_addr(movePlayer_key_L0+0)
	MOVWF       FSR1L+1 
	MOVLW       FLOC__movePlayer+0
	MOVWF       FSR0L+0 
	MOVLW       hi_addr(FLOC__movePlayer+0)
	MOVWF       FSR0L+1 
L_movePlayer14:
	MOVF        POSTINC0+0, 0 
	MOVWF       POSTINC1+0 
	DECF        R0, 1 
	BTFSS       STATUS+0, 2 
	GOTO        L_movePlayer14
;multiplayerInterrup.c,18 :: 		if (key.right){
	MOVF        movePlayer_key_L0+2, 1 
	BTFSC       STATUS+0, 2 
	GOTO        L_movePlayer15
;multiplayerInterrup.c,19 :: 		player.positionX = player.positionX + 1;
	MOVF        FARG_movePlayer_player+0, 0 
	ADDLW       1
	MOVWF       R0 
	MOVF        R0, 0 
	MOVWF       FARG_movePlayer_player+0 
;multiplayerInterrup.c,20 :: 		}
L_movePlayer15:
;multiplayerInterrup.c,22 :: 		if (key.left){
	MOVF        movePlayer_key_L0+3, 1 
	BTFSC       STATUS+0, 2 
	GOTO        L_movePlayer16
;multiplayerInterrup.c,23 :: 		player.positionX = player.positionX - 1;
	DECF        FARG_movePlayer_player+0, 0 
	MOVWF       R0 
	MOVF        R0, 0 
	MOVWF       FARG_movePlayer_player+0 
;multiplayerInterrup.c,24 :: 		}
L_movePlayer16:
;multiplayerInterrup.c,26 :: 		if (key.down){
	MOVF        movePlayer_key_L0+1, 1 
	BTFSC       STATUS+0, 2 
	GOTO        L_movePlayer17
;multiplayerInterrup.c,27 :: 		player.positionY = player.positionY + 1;
	MOVF        FARG_movePlayer_player+1, 0 
	ADDLW       1
	MOVWF       R0 
	MOVF        R0, 0 
	MOVWF       FARG_movePlayer_player+1 
;multiplayerInterrup.c,28 :: 		if (player.positionY >= 49){
	MOVLW       49
	SUBWF       FARG_movePlayer_player+1, 0 
	BTFSS       STATUS+0, 0 
	GOTO        L_movePlayer18
;multiplayerInterrup.c,29 :: 		player.positionY = 49;
	MOVLW       49
	MOVWF       FARG_movePlayer_player+1 
;multiplayerInterrup.c,30 :: 		}
L_movePlayer18:
;multiplayerInterrup.c,31 :: 		}
L_movePlayer17:
;multiplayerInterrup.c,33 :: 		if (key.up){
	MOVF        movePlayer_key_L0+0, 1 
	BTFSC       STATUS+0, 2 
	GOTO        L_movePlayer19
;multiplayerInterrup.c,34 :: 		player.positionY = player.positionY - 1;
	DECF        FARG_movePlayer_player+1, 0 
	MOVWF       R0 
	MOVF        R0, 0 
	MOVWF       FARG_movePlayer_player+1 
;multiplayerInterrup.c,35 :: 		if (player.positionY <= 7){
	MOVF        FARG_movePlayer_player+1, 0 
	SUBLW       7
	BTFSS       STATUS+0, 0 
	GOTO        L_movePlayer20
;multiplayerInterrup.c,36 :: 		player.positionY = 7;
	MOVLW       7
	MOVWF       FARG_movePlayer_player+1 
;multiplayerInterrup.c,37 :: 		}
L_movePlayer20:
;multiplayerInterrup.c,38 :: 		}
L_movePlayer19:
;multiplayerInterrup.c,40 :: 		return player;
	MOVLW       2
	MOVWF       R0 
	MOVF        _movePlayer_su_addr+0, 0 
	MOVWF       FSR1L+0 
	MOVF        _movePlayer_su_addr+1, 0 
	MOVWF       FSR1L+1 
	MOVLW       FARG_movePlayer_player+0
	MOVWF       FSR0L+0 
	MOVLW       hi_addr(FARG_movePlayer_player+0)
	MOVWF       FSR0L+1 
L_movePlayer21:
	MOVF        POSTINC0+0, 0 
	MOVWF       POSTINC1+0 
	DECF        R0, 1 
	BTFSS       STATUS+0, 2 
	GOTO        L_movePlayer21
;multiplayerInterrup.c,41 :: 		}
L_end_movePlayer:
	RETURN      0
; end of _movePlayer

_drawScore:

;multiplayerInterrup.c,43 :: 		void drawScore(uint8 a, uint8 b){
;multiplayerInterrup.c,47 :: 		ShortToStr(a, textA);
	MOVF        FARG_drawScore_a+0, 0 
	MOVWF       FARG_ShortToStr_input+0 
	MOVLW       _textA+0
	MOVWF       FARG_ShortToStr_output+0 
	MOVLW       hi_addr(_textA+0)
	MOVWF       FARG_ShortToStr_output+1 
	CALL        _ShortToStr+0, 0
;multiplayerInterrup.c,48 :: 		fixA = Ltrim(textA);
	MOVLW       _textA+0
	MOVWF       FARG_Ltrim_string+0 
	MOVLW       hi_addr(_textA+0)
	MOVWF       FARG_Ltrim_string+1 
	CALL        _Ltrim+0, 0
	MOVF        R0, 0 
	MOVWF       drawScore_fixA_L0+0 
	MOVF        R1, 0 
	MOVWF       drawScore_fixA_L0+1 
;multiplayerInterrup.c,49 :: 		Glcd_Write_Text("P1", 118, 0, 1);
	MOVLW       ?lstr1_multiplayerInterrup+0
	MOVWF       FARG_Glcd_Write_Text_text+0 
	MOVLW       hi_addr(?lstr1_multiplayerInterrup+0)
	MOVWF       FARG_Glcd_Write_Text_text+1 
	MOVLW       118
	MOVWF       FARG_Glcd_Write_Text_x_pos+0 
	CLRF        FARG_Glcd_Write_Text_page_num+0 
	MOVLW       1
	MOVWF       FARG_Glcd_Write_Text_color+0 
	CALL        _Glcd_Write_Text+0, 0
;multiplayerInterrup.c,50 :: 		Glcd_Write_Text(fixA, 95, 0, 1);
	MOVF        drawScore_fixA_L0+0, 0 
	MOVWF       FARG_Glcd_Write_Text_text+0 
	MOVF        drawScore_fixA_L0+1, 0 
	MOVWF       FARG_Glcd_Write_Text_text+1 
	MOVLW       95
	MOVWF       FARG_Glcd_Write_Text_x_pos+0 
	CLRF        FARG_Glcd_Write_Text_page_num+0 
	MOVLW       1
	MOVWF       FARG_Glcd_Write_Text_color+0 
	CALL        _Glcd_Write_Text+0, 0
;multiplayerInterrup.c,51 :: 		ShortToStr(b, textB);
	MOVF        FARG_drawScore_b+0, 0 
	MOVWF       FARG_ShortToStr_input+0 
	MOVLW       _textB+0
	MOVWF       FARG_ShortToStr_output+0 
	MOVLW       hi_addr(_textB+0)
	MOVWF       FARG_ShortToStr_output+1 
	CALL        _ShortToStr+0, 0
;multiplayerInterrup.c,52 :: 		fixB = Ltrim(textB);
	MOVLW       _textB+0
	MOVWF       FARG_Ltrim_string+0 
	MOVLW       hi_addr(_textB+0)
	MOVWF       FARG_Ltrim_string+1 
	CALL        _Ltrim+0, 0
	MOVF        R0, 0 
	MOVWF       drawScore_fixB_L0+0 
	MOVF        R1, 0 
	MOVWF       drawScore_fixB_L0+1 
;multiplayerInterrup.c,53 :: 		Glcd_Write_Text("P2", 0, 0, 1);
	MOVLW       ?lstr2_multiplayerInterrup+0
	MOVWF       FARG_Glcd_Write_Text_text+0 
	MOVLW       hi_addr(?lstr2_multiplayerInterrup+0)
	MOVWF       FARG_Glcd_Write_Text_text+1 
	CLRF        FARG_Glcd_Write_Text_x_pos+0 
	CLRF        FARG_Glcd_Write_Text_page_num+0 
	MOVLW       1
	MOVWF       FARG_Glcd_Write_Text_color+0 
	CALL        _Glcd_Write_Text+0, 0
;multiplayerInterrup.c,54 :: 		Glcd_Write_Text(fixB, 31, 0, 1);
	MOVF        drawScore_fixB_L0+0, 0 
	MOVWF       FARG_Glcd_Write_Text_text+0 
	MOVF        drawScore_fixB_L0+1, 0 
	MOVWF       FARG_Glcd_Write_Text_text+1 
	MOVLW       31
	MOVWF       FARG_Glcd_Write_Text_x_pos+0 
	CLRF        FARG_Glcd_Write_Text_page_num+0 
	MOVLW       1
	MOVWF       FARG_Glcd_Write_Text_color+0 
	CALL        _Glcd_Write_Text+0, 0
;multiplayerInterrup.c,55 :: 		}
L_end_drawScore:
	RETURN      0
; end of _drawScore

_moveBall:

;multiplayerInterrup.c,57 :: 		Generic moveBall(Generic ball)
	MOVF        R0, 0 
	MOVWF       R2 
	MOVF        R1, 0 
	MOVWF       R3 
;multiplayerInterrup.c,59 :: 		ball.posX = ball.posX + ball.dx;
	MOVF        FARG_moveBall_ball+2, 0 
	ADDWF       FARG_moveBall_ball+0, 0 
	MOVWF       R0 
	MOVF        R0, 0 
	MOVWF       FARG_moveBall_ball+0 
;multiplayerInterrup.c,60 :: 		ball.posY = ball.posY + ball.dy;
	MOVF        FARG_moveBall_ball+3, 0 
	ADDWF       FARG_moveBall_ball+1, 0 
	MOVWF       R0 
	MOVF        R0, 0 
	MOVWF       FARG_moveBall_ball+1 
;multiplayerInterrup.c,61 :: 		return ball;
	MOVLW       4
	MOVWF       R0 
	MOVF        R2, 0 
	MOVWF       FSR1L+0 
	MOVF        R3, 0 
	MOVWF       FSR1L+1 
	MOVLW       FARG_moveBall_ball+0
	MOVWF       FSR0L+0 
	MOVLW       hi_addr(FARG_moveBall_ball+0)
	MOVWF       FSR0L+1 
L_moveBall22:
	MOVF        POSTINC0+0, 0 
	MOVWF       POSTINC1+0 
	DECF        R0, 1 
	BTFSS       STATUS+0, 2 
	GOTO        L_moveBall22
;multiplayerInterrup.c,62 :: 		}
L_end_moveBall:
	RETURN      0
; end of _moveBall

_randint:

;multiplayerInterrup.c,65 :: 		uint8_t randint(uint8_t n)
;multiplayerInterrup.c,67 :: 		return (uint8_t)(rand() % (n+1));
	CALL        _rand+0, 0
	MOVF        FARG_randint_n+0, 0 
	ADDLW       1
	MOVWF       R4 
	CLRF        R5 
	MOVLW       0
	ADDWFC      R5, 1 
	CALL        _Div_16x16_S+0, 0
	MOVF        R8, 0 
	MOVWF       R0 
	MOVF        R9, 0 
	MOVWF       R1 
;multiplayerInterrup.c,68 :: 		}
L_end_randint:
	RETURN      0
; end of _randint

_main:

;multiplayerInterrup.c,70 :: 		void main() {
;multiplayerInterrup.c,71 :: 		Objeto playerOne = {122, 25};
	MOVLW       ?ICSmain_playerOne_L0+0
	MOVWF       TBLPTRL+0 
	MOVLW       hi_addr(?ICSmain_playerOne_L0+0)
	MOVWF       TBLPTRL+1 
	MOVLW       higher_addr(?ICSmain_playerOne_L0+0)
	MOVWF       TBLPTRL+2 
	MOVLW       main_playerOne_L0+0
	MOVWF       FSR1L+0 
	MOVLW       hi_addr(main_playerOne_L0+0)
	MOVWF       FSR1L+1 
	MOVLW       19
	MOVWF       R0 
	MOVLW       1
	MOVWF       R1 
	CALL        ___CC2DW+0, 0
;multiplayerInterrup.c,86 :: 		Serial_Init();
	CALL        multiplayerInterrup_Serial_Init+0, 0
;multiplayerInterrup.c,89 :: 		ADCON1=0x0F;
	MOVLW       15
	MOVWF       ADCON1+0 
;multiplayerInterrup.c,91 :: 		Glcd_Init();                                   // Initialize GLCD
	CALL        _Glcd_Init+0, 0
;multiplayerInterrup.c,92 :: 		Glcd_Fill(0x00);                               // Clear GLCD
	CLRF        FARG_Glcd_Fill_pattern+0 
	CALL        _Glcd_Fill+0, 0
;multiplayerInterrup.c,94 :: 		while (1)
L_main23:
;multiplayerInterrup.c,96 :: 		switch (state)
	GOTO        L_main25
;multiplayerInterrup.c,98 :: 		case 0:
L_main27:
;multiplayerInterrup.c,100 :: 		primerFrame();
	CALL        _primerFrame+0, 0
;multiplayerInterrup.c,101 :: 		state = 1;
	MOVLW       1
	MOVWF       main_state_L0+0 
;multiplayerInterrup.c,102 :: 		break;
	GOTO        L_main26
;multiplayerInterrup.c,104 :: 		case 1:
L_main28:
;multiplayerInterrup.c,110 :: 		while (1)
L_main29:
;multiplayerInterrup.c,112 :: 		key = readKeys();
	MOVLW       FLOC__main+0
	MOVWF       R0 
	MOVLW       hi_addr(FLOC__main+0)
	MOVWF       R1 
	CALL        multiplayerInterrup_readKeys+0, 0
	MOVLW       5
	MOVWF       R0 
	MOVLW       main_key_L0+0
	MOVWF       FSR1L+0 
	MOVLW       hi_addr(main_key_L0+0)
	MOVWF       FSR1L+1 
	MOVLW       FLOC__main+0
	MOVWF       FSR0L+0 
	MOVLW       hi_addr(FLOC__main+0)
	MOVWF       FSR0L+1 
L_main31:
	MOVF        POSTINC0+0, 0 
	MOVWF       POSTINC1+0 
	DECF        R0, 1 
	BTFSS       STATUS+0, 2 
	GOTO        L_main31
;multiplayerInterrup.c,113 :: 		if (modeGame == 0)
	MOVF        main_modeGame_L0+0, 0 
	XORLW       0
	BTFSS       STATUS+0, 2 
	GOTO        L_main32
;multiplayerInterrup.c,115 :: 		Glcd_Fill(0x00);
	CLRF        FARG_Glcd_Fill_pattern+0 
	CALL        _Glcd_Fill+0, 0
;multiplayerInterrup.c,116 :: 		Glcd_Image(seleccionDeJuego);
	MOVLW       _seleccionDeJuego+0
	MOVWF       FARG_Glcd_Image_image+0 
	MOVLW       hi_addr(_seleccionDeJuego+0)
	MOVWF       FARG_Glcd_Image_image+1 
	MOVLW       higher_addr(_seleccionDeJuego+0)
	MOVWF       FARG_Glcd_Image_image+2 
	CALL        _Glcd_Image+0, 0
;multiplayerInterrup.c,117 :: 		Glcd_Circle(25, 34, 4, 1);
	MOVLW       25
	MOVWF       FARG_Glcd_Circle_x_center+0 
	MOVLW       0
	MOVWF       FARG_Glcd_Circle_x_center+1 
	MOVLW       34
	MOVWF       FARG_Glcd_Circle_y_center+0 
	MOVLW       0
	MOVWF       FARG_Glcd_Circle_y_center+1 
	MOVLW       4
	MOVWF       FARG_Glcd_Circle_radius+0 
	MOVLW       0
	MOVWF       FARG_Glcd_Circle_radius+1 
	MOVLW       1
	MOVWF       FARG_Glcd_Circle_color+0 
	CALL        _Glcd_Circle+0, 0
;multiplayerInterrup.c,118 :: 		Delay_ms(500);
	MOVLW       6
	MOVWF       R11, 0
	MOVLW       19
	MOVWF       R12, 0
	MOVLW       173
	MOVWF       R13, 0
L_main33:
	DECFSZ      R13, 1, 1
	BRA         L_main33
	DECFSZ      R12, 1, 1
	BRA         L_main33
	DECFSZ      R11, 1, 1
	BRA         L_main33
	NOP
	NOP
;multiplayerInterrup.c,119 :: 		}
L_main32:
;multiplayerInterrup.c,121 :: 		if ((key.enter) && (modeGame == 0))
	MOVF        main_key_L0+4, 1 
	BTFSC       STATUS+0, 2 
	GOTO        L_main36
	MOVF        main_modeGame_L0+0, 0 
	XORLW       0
	BTFSS       STATUS+0, 2 
	GOTO        L_main36
L__main97:
;multiplayerInterrup.c,123 :: 		state = 2;
	MOVLW       2
	MOVWF       main_state_L0+0 
;multiplayerInterrup.c,124 :: 		Delay_ms(1000);
	MOVLW       11
	MOVWF       R11, 0
	MOVLW       38
	MOVWF       R12, 0
	MOVLW       93
	MOVWF       R13, 0
L_main37:
	DECFSZ      R13, 1, 1
	BRA         L_main37
	DECFSZ      R12, 1, 1
	BRA         L_main37
	DECFSZ      R11, 1, 1
	BRA         L_main37
	NOP
	NOP
;multiplayerInterrup.c,125 :: 		Glcd_Fill(0x00);
	CLRF        FARG_Glcd_Fill_pattern+0 
	CALL        _Glcd_Fill+0, 0
;multiplayerInterrup.c,126 :: 		break;
	GOTO        L_main30
;multiplayerInterrup.c,127 :: 		}
L_main36:
;multiplayerInterrup.c,129 :: 		if ((modeGame == 0) && ((key.down) || (key.up)))
	MOVF        main_modeGame_L0+0, 0 
	XORLW       0
	BTFSS       STATUS+0, 2 
	GOTO        L_main42
	MOVF        main_key_L0+1, 1 
	BTFSS       STATUS+0, 2 
	GOTO        L__main96
	MOVF        main_key_L0+0, 1 
	BTFSS       STATUS+0, 2 
	GOTO        L__main96
	GOTO        L_main42
L__main96:
L__main95:
;multiplayerInterrup.c,131 :: 		Glcd_Fill(0x00);
	CLRF        FARG_Glcd_Fill_pattern+0 
	CALL        _Glcd_Fill+0, 0
;multiplayerInterrup.c,132 :: 		Glcd_Image(seleccionDeJuego);
	MOVLW       _seleccionDeJuego+0
	MOVWF       FARG_Glcd_Image_image+0 
	MOVLW       hi_addr(_seleccionDeJuego+0)
	MOVWF       FARG_Glcd_Image_image+1 
	MOVLW       higher_addr(_seleccionDeJuego+0)
	MOVWF       FARG_Glcd_Image_image+2 
	CALL        _Glcd_Image+0, 0
;multiplayerInterrup.c,133 :: 		Glcd_Circle(25, 48, 4, 1);
	MOVLW       25
	MOVWF       FARG_Glcd_Circle_x_center+0 
	MOVLW       0
	MOVWF       FARG_Glcd_Circle_x_center+1 
	MOVLW       48
	MOVWF       FARG_Glcd_Circle_y_center+0 
	MOVLW       0
	MOVWF       FARG_Glcd_Circle_y_center+1 
	MOVLW       4
	MOVWF       FARG_Glcd_Circle_radius+0 
	MOVLW       0
	MOVWF       FARG_Glcd_Circle_radius+1 
	MOVLW       1
	MOVWF       FARG_Glcd_Circle_color+0 
	CALL        _Glcd_Circle+0, 0
;multiplayerInterrup.c,134 :: 		modeGame = 1;
	MOVLW       1
	MOVWF       main_modeGame_L0+0 
;multiplayerInterrup.c,135 :: 		Delay_ms(500);
	MOVLW       6
	MOVWF       R11, 0
	MOVLW       19
	MOVWF       R12, 0
	MOVLW       173
	MOVWF       R13, 0
L_main43:
	DECFSZ      R13, 1, 1
	BRA         L_main43
	DECFSZ      R12, 1, 1
	BRA         L_main43
	DECFSZ      R11, 1, 1
	BRA         L_main43
	NOP
	NOP
;multiplayerInterrup.c,136 :: 		key.down = 0;
	CLRF        main_key_L0+1 
;multiplayerInterrup.c,137 :: 		key.up   = 0;
	CLRF        main_key_L0+0 
;multiplayerInterrup.c,139 :: 		}
L_main42:
;multiplayerInterrup.c,141 :: 		if ((key.enter == 1) && (modeGame == 1))
	MOVF        main_key_L0+4, 0 
	XORLW       1
	BTFSS       STATUS+0, 2 
	GOTO        L_main46
	MOVF        main_modeGame_L0+0, 0 
	XORLW       1
	BTFSS       STATUS+0, 2 
	GOTO        L_main46
L__main94:
;multiplayerInterrup.c,143 :: 		Delay_ms(20);
	MOVLW       52
	MOVWF       R12, 0
	MOVLW       241
	MOVWF       R13, 0
L_main47:
	DECFSZ      R13, 1, 1
	BRA         L_main47
	DECFSZ      R12, 1, 1
	BRA         L_main47
	NOP
	NOP
;multiplayerInterrup.c,144 :: 		state = 3;
	MOVLW       3
	MOVWF       main_state_L0+0 
;multiplayerInterrup.c,145 :: 		break;
	GOTO        L_main30
;multiplayerInterrup.c,146 :: 		}
L_main46:
;multiplayerInterrup.c,148 :: 		if ((modeGame == 1) && ((key.down) || (key.up)))
	MOVF        main_modeGame_L0+0, 0 
	XORLW       1
	BTFSS       STATUS+0, 2 
	GOTO        L_main52
	MOVF        main_key_L0+1, 1 
	BTFSS       STATUS+0, 2 
	GOTO        L__main93
	MOVF        main_key_L0+0, 1 
	BTFSS       STATUS+0, 2 
	GOTO        L__main93
	GOTO        L_main52
L__main93:
L__main92:
;multiplayerInterrup.c,150 :: 		Glcd_Fill(0x00);
	CLRF        FARG_Glcd_Fill_pattern+0 
	CALL        _Glcd_Fill+0, 0
;multiplayerInterrup.c,151 :: 		Glcd_Image(seleccionDeJuego);
	MOVLW       _seleccionDeJuego+0
	MOVWF       FARG_Glcd_Image_image+0 
	MOVLW       hi_addr(_seleccionDeJuego+0)
	MOVWF       FARG_Glcd_Image_image+1 
	MOVLW       higher_addr(_seleccionDeJuego+0)
	MOVWF       FARG_Glcd_Image_image+2 
	CALL        _Glcd_Image+0, 0
;multiplayerInterrup.c,152 :: 		Glcd_Circle(25, 35, 4, 1);
	MOVLW       25
	MOVWF       FARG_Glcd_Circle_x_center+0 
	MOVLW       0
	MOVWF       FARG_Glcd_Circle_x_center+1 
	MOVLW       35
	MOVWF       FARG_Glcd_Circle_y_center+0 
	MOVLW       0
	MOVWF       FARG_Glcd_Circle_y_center+1 
	MOVLW       4
	MOVWF       FARG_Glcd_Circle_radius+0 
	MOVLW       0
	MOVWF       FARG_Glcd_Circle_radius+1 
	MOVLW       1
	MOVWF       FARG_Glcd_Circle_color+0 
	CALL        _Glcd_Circle+0, 0
;multiplayerInterrup.c,153 :: 		Delay_ms(500);
	MOVLW       6
	MOVWF       R11, 0
	MOVLW       19
	MOVWF       R12, 0
	MOVLW       173
	MOVWF       R13, 0
L_main53:
	DECFSZ      R13, 1, 1
	BRA         L_main53
	DECFSZ      R12, 1, 1
	BRA         L_main53
	DECFSZ      R11, 1, 1
	BRA         L_main53
	NOP
	NOP
;multiplayerInterrup.c,154 :: 		modeGame = 0;
	CLRF        main_modeGame_L0+0 
;multiplayerInterrup.c,155 :: 		}
L_main52:
;multiplayerInterrup.c,157 :: 		}
	GOTO        L_main29
L_main30:
;multiplayerInterrup.c,158 :: 		break;
	GOTO        L_main26
;multiplayerInterrup.c,160 :: 		case 2:
L_main54:
;multiplayerInterrup.c,162 :: 		Glcd_Dot(playerOne.positionX, playerOne.positionY, 2);
	MOVF        main_playerOne_L0+0, 0 
	MOVWF       FARG_Glcd_Dot_x_pos+0 
	MOVF        main_playerOne_L0+1, 0 
	MOVWF       FARG_Glcd_Dot_y_pos+0 
	MOVLW       2
	MOVWF       FARG_Glcd_Dot_color+0 
	CALL        _Glcd_Dot+0, 0
;multiplayerInterrup.c,163 :: 		Delay_ms(10);
	MOVLW       26
	MOVWF       R12, 0
	MOVLW       248
	MOVWF       R13, 0
L_main55:
	DECFSZ      R13, 1, 1
	BRA         L_main55
	DECFSZ      R12, 1, 1
	BRA         L_main55
	NOP
;multiplayerInterrup.c,164 :: 		playerOne = movePlayer(playerOne);
	MOVLW       2
	MOVWF       R0 
	MOVLW       FARG_movePlayer_player+0
	MOVWF       FSR1L+0 
	MOVLW       hi_addr(FARG_movePlayer_player+0)
	MOVWF       FSR1L+1 
	MOVLW       main_playerOne_L0+0
	MOVWF       FSR0L+0 
	MOVLW       hi_addr(main_playerOne_L0+0)
	MOVWF       FSR0L+1 
L_main56:
	MOVF        POSTINC0+0, 0 
	MOVWF       POSTINC1+0 
	DECF        R0, 1 
	BTFSS       STATUS+0, 2 
	GOTO        L_main56
	MOVLW       FLOC__main+0
	MOVWF       R0 
	MOVLW       hi_addr(FLOC__main+0)
	MOVWF       R1 
	CALL        _movePlayer+0, 0
	MOVLW       2
	MOVWF       R0 
	MOVLW       main_playerOne_L0+0
	MOVWF       FSR1L+0 
	MOVLW       hi_addr(main_playerOne_L0+0)
	MOVWF       FSR1L+1 
	MOVLW       FLOC__main+0
	MOVWF       FSR0L+0 
	MOVLW       hi_addr(FLOC__main+0)
	MOVWF       FSR0L+1 
L_main57:
	MOVF        POSTINC0+0, 0 
	MOVWF       POSTINC1+0 
	DECF        R0, 1 
	BTFSS       STATUS+0, 2 
	GOTO        L_main57
;multiplayerInterrup.c,165 :: 		Glcd_Fill(0x00);
	CLRF        FARG_Glcd_Fill_pattern+0 
	CALL        _Glcd_Fill+0, 0
;multiplayerInterrup.c,166 :: 		break;
	GOTO        L_main26
;multiplayerInterrup.c,168 :: 		case 3:
L_main58:
;multiplayerInterrup.c,170 :: 		while (1)
L_main59:
;multiplayerInterrup.c,173 :: 		lastBall = ball;
	MOVLW       4
	MOVWF       R0 
	MOVLW       main_lastBall_L0+0
	MOVWF       FSR1L+0 
	MOVLW       hi_addr(main_lastBall_L0+0)
	MOVWF       FSR1L+1 
	MOVLW       main_ball_L0+0
	MOVWF       FSR0L+0 
	MOVLW       hi_addr(main_ball_L0+0)
	MOVWF       FSR0L+1 
L_main61:
	MOVF        POSTINC0+0, 0 
	MOVWF       POSTINC1+0 
	DECF        R0, 1 
	BTFSS       STATUS+0, 2 
	GOTO        L_main61
;multiplayerInterrup.c,174 :: 		ball = moveBall(ball);
	MOVLW       4
	MOVWF       R0 
	MOVLW       FARG_moveBall_ball+0
	MOVWF       FSR1L+0 
	MOVLW       hi_addr(FARG_moveBall_ball+0)
	MOVWF       FSR1L+1 
	MOVLW       main_ball_L0+0
	MOVWF       FSR0L+0 
	MOVLW       hi_addr(main_ball_L0+0)
	MOVWF       FSR0L+1 
L_main62:
	MOVF        POSTINC0+0, 0 
	MOVWF       POSTINC1+0 
	DECF        R0, 1 
	BTFSS       STATUS+0, 2 
	GOTO        L_main62
	MOVLW       FLOC__main+0
	MOVWF       R0 
	MOVLW       hi_addr(FLOC__main+0)
	MOVWF       R1 
	CALL        _moveBall+0, 0
	MOVLW       4
	MOVWF       R0 
	MOVLW       main_ball_L0+0
	MOVWF       FSR1L+0 
	MOVLW       hi_addr(main_ball_L0+0)
	MOVWF       FSR1L+1 
	MOVLW       FLOC__main+0
	MOVWF       FSR0L+0 
	MOVLW       hi_addr(FLOC__main+0)
	MOVWF       FSR0L+1 
L_main63:
	MOVF        POSTINC0+0, 0 
	MOVWF       POSTINC1+0 
	DECF        R0, 1 
	BTFSS       STATUS+0, 2 
	GOTO        L_main63
;multiplayerInterrup.c,175 :: 		checkWallCollision(&ball);
	MOVLW       main_ball_L0+0
	MOVWF       FARG_checkWallCollision_ball_tmp+0 
	MOVLW       hi_addr(main_ball_L0+0)
	MOVWF       FARG_checkWallCollision_ball_tmp+1 
	CALL        _checkWallCollision+0, 0
;multiplayerInterrup.c,177 :: 		if(check_collision(ball, playerOne)){
	MOVLW       4
	MOVWF       R0 
	MOVLW       FARG_check_collision__ball+0
	MOVWF       FSR1L+0 
	MOVLW       hi_addr(FARG_check_collision__ball+0)
	MOVWF       FSR1L+1 
	MOVLW       main_ball_L0+0
	MOVWF       FSR0L+0 
	MOVLW       hi_addr(main_ball_L0+0)
	MOVWF       FSR0L+1 
L_main64:
	MOVF        POSTINC0+0, 0 
	MOVWF       POSTINC1+0 
	DECF        R0, 1 
	BTFSS       STATUS+0, 2 
	GOTO        L_main64
	MOVLW       2
	MOVWF       R0 
	MOVLW       FARG_check_collision_player+0
	MOVWF       FSR1L+0 
	MOVLW       hi_addr(FARG_check_collision_player+0)
	MOVWF       FSR1L+1 
	MOVLW       main_playerOne_L0+0
	MOVWF       FSR0L+0 
	MOVLW       hi_addr(main_playerOne_L0+0)
	MOVWF       FSR0L+1 
L_main65:
	MOVF        POSTINC0+0, 0 
	MOVWF       POSTINC1+0 
	DECF        R0, 1 
	BTFSS       STATUS+0, 2 
	GOTO        L_main65
	CALL        _check_collision+0, 0
	MOVF        R0, 1 
	BTFSC       STATUS+0, 2 
	GOTO        L_main66
;multiplayerInterrup.c,178 :: 		randNum = randint(1);
	MOVLW       1
	MOVWF       FARG_randint_n+0 
	CALL        _randint+0, 0
;multiplayerInterrup.c,179 :: 		changeDirectionMode1(randNum, &ball);
	MOVF        R0, 0 
	MOVWF       FARG_changeDirectionMode1_randNum+0 
	MOVLW       main_ball_L0+0
	MOVWF       FARG_changeDirectionMode1_ball+0 
	MOVLW       hi_addr(main_ball_L0+0)
	MOVWF       FARG_changeDirectionMode1_ball+1 
	CALL        _changeDirectionMode1+0, 0
;multiplayerInterrup.c,180 :: 		}
L_main66:
;multiplayerInterrup.c,181 :: 		if(check_collision(ball, playerTwo)){
	MOVLW       4
	MOVWF       R0 
	MOVLW       FARG_check_collision__ball+0
	MOVWF       FSR1L+0 
	MOVLW       hi_addr(FARG_check_collision__ball+0)
	MOVWF       FSR1L+1 
	MOVLW       main_ball_L0+0
	MOVWF       FSR0L+0 
	MOVLW       hi_addr(main_ball_L0+0)
	MOVWF       FSR0L+1 
L_main67:
	MOVF        POSTINC0+0, 0 
	MOVWF       POSTINC1+0 
	DECF        R0, 1 
	BTFSS       STATUS+0, 2 
	GOTO        L_main67
	MOVLW       2
	MOVWF       R0 
	MOVLW       FARG_check_collision_player+0
	MOVWF       FSR1L+0 
	MOVLW       hi_addr(FARG_check_collision_player+0)
	MOVWF       FSR1L+1 
	MOVLW       main_playerTwo_L0+0
	MOVWF       FSR0L+0 
	MOVLW       hi_addr(main_playerTwo_L0+0)
	MOVWF       FSR0L+1 
L_main68:
	MOVF        POSTINC0+0, 0 
	MOVWF       POSTINC1+0 
	DECF        R0, 1 
	BTFSS       STATUS+0, 2 
	GOTO        L_main68
	CALL        _check_collision+0, 0
	MOVF        R0, 1 
	BTFSC       STATUS+0, 2 
	GOTO        L_main69
;multiplayerInterrup.c,182 :: 		randNum = randint(1);
	MOVLW       1
	MOVWF       FARG_randint_n+0 
	CALL        _randint+0, 0
;multiplayerInterrup.c,183 :: 		changeDirectionMode2(randNum, &ball);
	MOVF        R0, 0 
	MOVWF       FARG_changeDirectionMode2_randNum+0 
	MOVLW       main_ball_L0+0
	MOVWF       FARG_changeDirectionMode2_ball+0 
	MOVLW       hi_addr(main_ball_L0+0)
	MOVWF       FARG_changeDirectionMode2_ball+1 
	CALL        _changeDirectionMode2+0, 0
;multiplayerInterrup.c,184 :: 		}
L_main69:
;multiplayerInterrup.c,186 :: 		if ((ball.dx != lastBall.dx) || (ball.dy != lastBall.dy))
	MOVF        main_ball_L0+2, 0 
	XORWF       main_lastBall_L0+2, 0 
	BTFSS       STATUS+0, 2 
	GOTO        L__main91
	MOVF        main_ball_L0+3, 0 
	XORWF       main_lastBall_L0+3, 0 
	BTFSS       STATUS+0, 2 
	GOTO        L__main91
	GOTO        L_main72
L__main91:
;multiplayerInterrup.c,188 :: 		Serial_writeByte(0xDD);
	MOVLW       221
	MOVWF       FARG_Serial_writeByte_b+0 
	CALL        _Serial_writeByte+0, 0
;multiplayerInterrup.c,189 :: 		Serial_Write(&ball, sizeof(Generic));
	MOVLW       main_ball_L0+0
	MOVWF       FARG_Serial_Write_buf+0 
	MOVLW       hi_addr(main_ball_L0+0)
	MOVWF       FARG_Serial_Write_buf+1 
	MOVLW       4
	MOVWF       FARG_Serial_Write_n+0 
	MOVLW       0
	MOVWF       FARG_Serial_Write_n+1 
	CALL        _Serial_Write+0, 0
;multiplayerInterrup.c,190 :: 		}
L_main72:
;multiplayerInterrup.c,192 :: 		lastPlayerOne = playerOne;
	MOVLW       2
	MOVWF       R0 
	MOVLW       main_lastPlayerOne_L0+0
	MOVWF       FSR1L+0 
	MOVLW       hi_addr(main_lastPlayerOne_L0+0)
	MOVWF       FSR1L+1 
	MOVLW       main_playerOne_L0+0
	MOVWF       FSR0L+0 
	MOVLW       hi_addr(main_playerOne_L0+0)
	MOVWF       FSR0L+1 
L_main73:
	MOVF        POSTINC0+0, 0 
	MOVWF       POSTINC1+0 
	DECF        R0, 1 
	BTFSS       STATUS+0, 2 
	GOTO        L_main73
;multiplayerInterrup.c,193 :: 		playerOne = movePlayer(playerOne);
	MOVLW       2
	MOVWF       R0 
	MOVLW       FARG_movePlayer_player+0
	MOVWF       FSR1L+0 
	MOVLW       hi_addr(FARG_movePlayer_player+0)
	MOVWF       FSR1L+1 
	MOVLW       main_playerOne_L0+0
	MOVWF       FSR0L+0 
	MOVLW       hi_addr(main_playerOne_L0+0)
	MOVWF       FSR0L+1 
L_main74:
	MOVF        POSTINC0+0, 0 
	MOVWF       POSTINC1+0 
	DECF        R0, 1 
	BTFSS       STATUS+0, 2 
	GOTO        L_main74
	MOVLW       FLOC__main+0
	MOVWF       R0 
	MOVLW       hi_addr(FLOC__main+0)
	MOVWF       R1 
	CALL        _movePlayer+0, 0
	MOVLW       2
	MOVWF       R0 
	MOVLW       main_playerOne_L0+0
	MOVWF       FSR1L+0 
	MOVLW       hi_addr(main_playerOne_L0+0)
	MOVWF       FSR1L+1 
	MOVLW       FLOC__main+0
	MOVWF       FSR0L+0 
	MOVLW       hi_addr(FLOC__main+0)
	MOVWF       FSR0L+1 
L_main75:
	MOVF        POSTINC0+0, 0 
	MOVWF       POSTINC1+0 
	DECF        R0, 1 
	BTFSS       STATUS+0, 2 
	GOTO        L_main75
;multiplayerInterrup.c,195 :: 		if (lastPlayerOne.positionY != playerOne.positionY)
	MOVF        main_lastPlayerOne_L0+1, 0 
	XORWF       main_playerOne_L0+1, 0 
	BTFSC       STATUS+0, 2 
	GOTO        L_main76
;multiplayerInterrup.c,197 :: 		Serial_writeByte(0xCC);
	MOVLW       204
	MOVWF       FARG_Serial_writeByte_b+0 
	CALL        _Serial_writeByte+0, 0
;multiplayerInterrup.c,198 :: 		Serial_Write(&playerOne, sizeof(playerOne));
	MOVLW       main_playerOne_L0+0
	MOVWF       FARG_Serial_Write_buf+0 
	MOVLW       hi_addr(main_playerOne_L0+0)
	MOVWF       FARG_Serial_Write_buf+1 
	MOVLW       2
	MOVWF       FARG_Serial_Write_n+0 
	MOVLW       0
	MOVWF       FARG_Serial_Write_n+1 
	CALL        _Serial_Write+0, 0
;multiplayerInterrup.c,199 :: 		Delay_ms(25);
	MOVLW       65
	MOVWF       R12, 0
	MOVLW       238
	MOVWF       R13, 0
L_main77:
	DECFSZ      R13, 1, 1
	BRA         L_main77
	DECFSZ      R12, 1, 1
	BRA         L_main77
	NOP
;multiplayerInterrup.c,200 :: 		}
L_main76:
;multiplayerInterrup.c,203 :: 		markUART = getMark();
	CALL        _getMark+0, 0
	MOVF        R0, 0 
	MOVWF       main_markUART_L0+0 
;multiplayerInterrup.c,204 :: 		if (markUART != 0)
	MOVF        R0, 0 
	XORLW       0
	BTFSC       STATUS+0, 2 
	GOTO        L_main78
;multiplayerInterrup.c,207 :: 		if (markUART == 0xee)
	MOVF        main_markUART_L0+0, 0 
	XORLW       238
	BTFSS       STATUS+0, 2 
	GOTO        L_main79
;multiplayerInterrup.c,209 :: 		Serial_Read(&playerTwo, sizeof(Objeto)); //parece la opcion mas rapida
	MOVLW       main_playerTwo_L0+0
	MOVWF       FARG_Serial_Read_buf+0 
	MOVLW       hi_addr(main_playerTwo_L0+0)
	MOVWF       FARG_Serial_Read_buf+1 
	MOVLW       2
	MOVWF       FARG_Serial_Read_n+0 
	MOVLW       0
	MOVWF       FARG_Serial_Read_n+1 
	CALL        _Serial_Read+0, 0
;multiplayerInterrup.c,210 :: 		}
L_main79:
;multiplayerInterrup.c,211 :: 		}
L_main78:
;multiplayerInterrup.c,213 :: 		point = checkVerticalWall(&Ball);
	MOVLW       main_ball_L0+0
	MOVWF       FARG_checkVerticalWall_ball_tmp+0 
	MOVLW       hi_addr(main_ball_L0+0)
	MOVWF       FARG_checkVerticalWall_ball_tmp+1 
	CALL        _checkVerticalWall+0, 0
	MOVF        R0, 0 
	MOVWF       main_point_L0+0 
;multiplayerInterrup.c,215 :: 		switch (point)
	GOTO        L_main80
;multiplayerInterrup.c,217 :: 		case 0:
L_main82:
;multiplayerInterrup.c,218 :: 		scoreA = scoreA + 5;
	MOVLW       5
	ADDWF       main_scoreA_L0+0, 0 
	MOVWF       R0 
	MOVF        R0, 0 
	MOVWF       main_scoreA_L0+0 
;multiplayerInterrup.c,219 :: 		drawScore(scoreA, scoreB);
	MOVF        R0, 0 
	MOVWF       FARG_drawScore_a+0 
	MOVF        main_scoreB_L0+0, 0 
	MOVWF       FARG_drawScore_b+0 
	CALL        _drawScore+0, 0
;multiplayerInterrup.c,221 :: 		if (scoreA >= 10)
	MOVLW       10
	SUBWF       main_scoreA_L0+0, 0 
	BTFSS       STATUS+0, 0 
	GOTO        L_main83
;multiplayerInterrup.c,223 :: 		winFrame();
	CALL        _winFrame+0, 0
;multiplayerInterrup.c,224 :: 		state = 1;
	MOVLW       1
	MOVWF       main_state_L0+0 
;multiplayerInterrup.c,226 :: 		Serial_writeByte(0xFA);
	MOVLW       250
	MOVWF       FARG_Serial_writeByte_b+0 
	CALL        _Serial_writeByte+0, 0
;multiplayerInterrup.c,227 :: 		Delay_ms(50);
	MOVLW       130
	MOVWF       R12, 0
	MOVLW       221
	MOVWF       R13, 0
L_main84:
	DECFSZ      R13, 1, 1
	BRA         L_main84
	DECFSZ      R12, 1, 1
	BRA         L_main84
	NOP
	NOP
;multiplayerInterrup.c,228 :: 		}
L_main83:
;multiplayerInterrup.c,231 :: 		break;
	GOTO        L_main81
;multiplayerInterrup.c,233 :: 		case 1:
L_main85:
;multiplayerInterrup.c,234 :: 		scoreB++;
	INCF        main_scoreB_L0+0, 1 
;multiplayerInterrup.c,235 :: 		drawScore(scoreA, scoreB);
	MOVF        main_scoreA_L0+0, 0 
	MOVWF       FARG_drawScore_a+0 
	MOVF        main_scoreB_L0+0, 0 
	MOVWF       FARG_drawScore_b+0 
	CALL        _drawScore+0, 0
;multiplayerInterrup.c,238 :: 		break;
	GOTO        L_main81
;multiplayerInterrup.c,240 :: 		case 2:
L_main86:
;multiplayerInterrup.c,241 :: 		Glcd_Fill(0x00);
	CLRF        FARG_Glcd_Fill_pattern+0 
	CALL        _Glcd_Fill+0, 0
;multiplayerInterrup.c,242 :: 		drawScore(scoreA, scoreB);
	MOVF        main_scoreA_L0+0, 0 
	MOVWF       FARG_drawScore_a+0 
	MOVF        main_scoreB_L0+0, 0 
	MOVWF       FARG_drawScore_b+0 
	CALL        _drawScore+0, 0
;multiplayerInterrup.c,243 :: 		Delay_ms(30);
	MOVLW       78
	MOVWF       R12, 0
	MOVLW       235
	MOVWF       R13, 0
L_main87:
	DECFSZ      R13, 1, 1
	BRA         L_main87
	DECFSZ      R12, 1, 1
	BRA         L_main87
;multiplayerInterrup.c,244 :: 		break;
	GOTO        L_main81
;multiplayerInterrup.c,246 :: 		default:
L_main88:
;multiplayerInterrup.c,247 :: 		break;
	GOTO        L_main81
;multiplayerInterrup.c,248 :: 		}
L_main80:
	MOVF        main_point_L0+0, 0 
	XORLW       0
	BTFSC       STATUS+0, 2 
	GOTO        L_main82
	MOVF        main_point_L0+0, 0 
	XORLW       1
	BTFSC       STATUS+0, 2 
	GOTO        L_main85
	MOVF        main_point_L0+0, 0 
	XORLW       2
	BTFSC       STATUS+0, 2 
	GOTO        L_main86
	GOTO        L_main88
L_main81:
;multiplayerInterrup.c,250 :: 		drawPaddleOne(&playerOne);
	MOVLW       main_playerOne_L0+0
	MOVWF       FARG_drawPaddleOne_rect+0 
	MOVLW       hi_addr(main_playerOne_L0+0)
	MOVWF       FARG_drawPaddleOne_rect+1 
	CALL        _drawPaddleOne+0, 0
;multiplayerInterrup.c,251 :: 		drawPaddleTwo(&playerTwo);
	MOVLW       main_playerTwo_L0+0
	MOVWF       FARG_drawPaddleTwo_rect+0 
	MOVLW       hi_addr(main_playerTwo_L0+0)
	MOVWF       FARG_drawPaddleTwo_rect+1 
	CALL        _drawPaddleTwo+0, 0
;multiplayerInterrup.c,252 :: 		drawBall(&ball);
	MOVLW       main_ball_L0+0
	MOVWF       FARG_drawBall_rect+0 
	MOVLW       hi_addr(main_ball_L0+0)
	MOVWF       FARG_drawBall_rect+1 
	CALL        _drawBall+0, 0
;multiplayerInterrup.c,253 :: 		drawNetAndWall();
	CALL        _drawNetAndWall+0, 0
;multiplayerInterrup.c,255 :: 		if (state == 1)
	MOVF        main_state_L0+0, 0 
	XORLW       1
	BTFSS       STATUS+0, 2 
	GOTO        L_main89
;multiplayerInterrup.c,257 :: 		Glcd_Fill(0x00);
	CLRF        FARG_Glcd_Fill_pattern+0 
	CALL        _Glcd_Fill+0, 0
;multiplayerInterrup.c,258 :: 		break;
	GOTO        L_main60
;multiplayerInterrup.c,259 :: 		}
L_main89:
;multiplayerInterrup.c,261 :: 		}
	GOTO        L_main59
L_main60:
;multiplayerInterrup.c,262 :: 		break;
	GOTO        L_main26
;multiplayerInterrup.c,264 :: 		default:
L_main90:
;multiplayerInterrup.c,265 :: 		break;
	GOTO        L_main26
;multiplayerInterrup.c,266 :: 		}
L_main25:
	MOVF        main_state_L0+0, 0 
	XORLW       0
	BTFSC       STATUS+0, 2 
	GOTO        L_main27
	MOVF        main_state_L0+0, 0 
	XORLW       1
	BTFSC       STATUS+0, 2 
	GOTO        L_main28
	MOVF        main_state_L0+0, 0 
	XORLW       2
	BTFSC       STATUS+0, 2 
	GOTO        L_main54
	MOVF        main_state_L0+0, 0 
	XORLW       3
	BTFSC       STATUS+0, 2 
	GOTO        L_main58
	GOTO        L_main90
L_main26:
;multiplayerInterrup.c,268 :: 		}
	GOTO        L_main23
;multiplayerInterrup.c,269 :: 		}
L_end_main:
	GOTO        $+0
; end of _main
